
      /EDUSYSTEM 50 MONITOR FOR MELROSE HIGH SCHOOL #495AB                Page 1


    1             /EDUSYSTEM 50 MONITOR FOR MELROSE HIGH SCHOOL #495AB
    2             /COPYRIGHT 1975
    3             /DIGITAL EQUIPMENT CORPORATION, MAYNARD, MASS.
    4             /
    5             /THIS SECTION DEFINES THE HARDWARE CONFIGURATION ON WHICH INDIVIDUAL
    6             /EDUSYSTEM 50 MONITORS ARE TO RUN.
    7             /FOR EACH STATEMENT, THE COMMENT INDICATES THE POSSIBLE RESPONSES.
    8             
    9       0002  CPU=    2       /1 IF CPU IS PDP-8; 0 IF CPU IS PDP-8/I;
   10                             /2 IF CPU IS PDP-8/E
   11             
   12       0070  CORMEM= 70      /HIGHEST DATA FIELD SELECT. FOR 12K SYSTEM,
   13                             /RESPOND 20, FOR 16K SYSTEM, RESPOND 30, ETC. (70 MAX)
   14             
   15       0000  PHONES= 0       /1 IF DC08 INCLUDES 689AG;
   16                             /0 IF IT DOES NOT OR IF TTY INTERFACING IS OTHER THAN DC08
   17             
   18       0000  EAE=    0       /20 IF PROCESSOR INCLUDES EAE; 0 IF IT DOES NOT
   19             
   20       0000  RF08=   0       /40 IF SYSTEM DISC IS DF32; 0 IF SYSTEM DISK IS RF08
   21             
   22       0000  RS08=   0       /NUMBER OF DISCS ON THE SYSTEM, WHETHER DF/DS OR RF/RS.
   23                             /RESPOND WITH 1, 2, 3, OR 4.
   24             
   25       0001  RKSYS=  1       /1 IF SYSTEM USES RK05 DRIVE 0 AS SYSTEM / SWAP
   26             
   27       0001  PUNCH=  1       /1 IF SYSTEM INCLUDES PUNCH; 0 IF IT DOES NOT
   28             
   29       0001  TC01=   1       /1 IF SYSTEM INCLUDES DECTAPE(S); 0 IF IT DOES NOT
   30             
   31       0000  RK05=   0       /NUMBER OF RK05 CARTRIDGE DISK DRIVES ON THE SYSTEM; 0 TO 4
   32             
   33       0000  CDR=    0       /1 IF SYSTEM INCLUDES CARD READER; 0 IF IT DOES NOT
   34             
   35       0000  LPT=    0       /1 IF SYSTEM INCLUDES LINE PRINTER; 0 IF NO LINE PRINTER
   36             
   37             DECIMAL /MONITOR CAPACITY FOR THIS SYSTEM
   38             
   39       0024  JOBMAX= 20      /NUMBER OF SIMULTANEOUS USERS (20 MAXIMUM)
   40             
   41             /THE FOLLOWING ENTRIES DEFINE THE NUMBER OF TERMINALS
   42             /ATTACHED TO THE SYSTEM, AND ALSO THE METHOD OF INTERFACING
   43             
   44       0001  CONTTY= 1       /WE ALWAYS HAVE A CONSOLE (K00)
   45             
   46       0000  DC08A=  0       /NUMBER OF TERMINALS INTERFACED VIA DC08A (PDP-8/I ONLY, 19 MAX.)
   47             
   48       0000  DC08LO= 0       /LOWEST HARDWARE LINE NUMBER UTILIZED ON DC08A; USUALLY 0
   49             
   50       0000  PT08=   0       /NUMBER OF TERMINALS INTERFACED VIA PT08 (PDP-8 & PDP-8/I ONLY)
   51             
   52       0010  KL8=    8       /NUMBER OF ADDITIONAL TERMINALS INTERFACED VIA KL8 (PDP-8/E ONLY, 19 MAX.)

      /EDUSYSTEM 50 MONITOR FOR MELROSE HIGH SCHOOL #495AB                Page 2


   53             
   54             /PARAMETERS VERSION 8.24 (01-JANUARY-75)
   55             /
   56             /
   57             /
   58             /
   59             /COPYRIGHT (C) 1975
   60             /DIGITAL EQUIPMENT CORPORATION, MAYNARD, MASS.
   61             /
   62             /
   63             /THIS SOFTWARE IS FURNISHED UNDER A LICENSE FOR USE ONLY
   64             /ON A SINGLE COMPUTER SYSTEM AND MAY BE COPIED ONLY WITH
   65             /THE  INCLUSION  OF  THE  ABOVE  COPYRIGHT NOTICE.  THIS
   66             /SOFTWARE, OR ANY OTHER COPIES THEREOF,  MAY NOT BE PRO-
   67             /VIDED OR OTHERWISE  MADE AVAILABLE TO ANY  OTHER PERSON
   68             /EXCEPT FOR USE ON SUCH SYSTEM  AND TO ONE WHO AGREES TO
   69             /THESE  LICENSE  TERMS.  TITLE TO AND  OWNERSHIP  OF THE
   70             /SOFTWARE SHALL REMAIN IN DEC.
   71             /
   72             /THE  INFORMATION IN THIS  DOCUMENT IS SUBJECT TO CHANGE
   73             /WITHOUT NOTICE AND SHOULD  NOT BE  CONSTRUED  AS A COM-
   74             /MITMENT BY DIGITAL EQUIPMENT CORPORATION.
   75             /
   76             /DEC   ASSUMES   NO   RESPONSIBILITY   FOR  THE  USE  OR
   77             /RELIABILITY  OF  ITS SOFTWARE ON EQUIPMENT WHICH IS NOT
   78             /SUPPLIED BY DEC.

      /EDUSYSTEM 50 MONITOR FOR MELROSE HIGH SCHOOL #495AB                Page 3


   79             
   80             OCTAL
   81       0000  PLT=0
   82             IFNZRO CPU < IFNZRO DC08A <ILLEGAL CONFIGURATION>>
   83             IFNZRO 24-JOBMAX&4000 <ILLEGAL CONFIGURATION>
   84             IFNZRO 23-KL8-PT08&4000 <ILLEGAL CONFIGURATION>
   85             IFNZRO 24-DC08A&4000 <ILLEGAL CONFIGURATION>
   86       0000  IFZERO DC08A <D689=0>
   87             IFNZRO DC08A < IFNZRO PHONES <D689=4>
   88                     IFZERO PHONES <D689=0>>
   89       0010  NULINE=DC08A+PT08+KL8           /EVERY TERMINAL EXCEPT THE CONSOLE
   90       0005  SWDEX=5                         /DISK TRACK OF THE FIRST USER SWAP TRACK
   91       0005  STOMIN=5                        /MINIMUM # FREE STORAGE BLOCK FOR NEWJOB
   92             IFZERO RKSYS <
   93             IFZERO RF08-40 <
   94             IFZERO RS08-1 <DSKSIZ=10>
   95             IFZERO RS08-2 <DSKSIZ=20>
   96             IFZERO RS08-3 <DSKSIZ=30>
   97             IFZERO RS08-4 <DSKSIZ=40>
   98             DSKEXT=DSKSIZ-1>
   99             IFZERO RF08 <DSKSIZ=RS08^100    /# 4K DISC TRACKS
  100             DSKEXT=RS08^100+77> >
  101       0400  IFNZRO RKSYS<DSKSIZ=400         /MAX 4K DISK TRACKS SUPPORTED BY FILESYSTEM
  102       0477  DSKEXT=477>                     /NO IDEA WHAT THIS IS FOR AND IT'S NOT USED ANYWHERE...
  103             
  104       0144  CLOCKR=144                      /MILLISECONDS PER TICK
  105       1130  TICMIN=1130                     /600 TICKS PER MINUTE
  106       0322  INCLK2=0322                     /INITIAL CLOCK
  107       7400  INCLK1=7400
  108       0012  TICSPS=12                       /NUMBER OF SYSTEM TICKS PER SECOND
  109       0010  INIDEX=10                       /INIT DISC EXTENSION
  110       0030  TS8DEX=30                       /FIELD 0 DISC EXTENSION*2^3
  111       0000  ERPDEX=0                        /ERP DISC EXTENSION*4
  112       0000  ERPWC=0                         /ERP WORD COUNT
  113       0004  FIPDEX=4                        /FIP DISC EXTENSION*4
  114       0000  FIPWC=0                         /FIP WORD COUNT
  115       0000  SIDEX=ERPDEX                    /SI DISC EXTENSION*4
  116       0000  SIWC=ERPWC                      /SI WORD COUNT
  117       0002  LIBACT=2                        /LIBRARY ACCOUNT #
  118       4000  BRKINI=4000                     /INITIAL USER BREAK MASK
  119             

      /EDUSYSTEM 50 MONITOR FOR MELROSE HIGH SCHOOL #495AB                Page 4


  120             
  121             /IOT DEFINITIONS
  122             
  123             IFNZRO DC08A <                  /DC08A,DL8I IOTS
  124             TTIL=6401                       /INCREMENT LINE REGISTER
  125             TTI=6402                        /TELETYPE INPUT COMMAND
  126             TTO=6404                        /TELETYPE OUTPUT COMMAND
  127             TTCL=6411                       /CLEAR LINE REGISTER
  128             TTLL=6412                       /LOAD LINE REGISTER, CLEAR AC
  129             TTRL=6414                       /READ LINE REGISTER
  130             T1SKP=6421                      /SKIP ON CLOCK FLAG
  131             T1OFF=6422                      /TURN CLOCK OFF
  132             T1ON=6424                       /TURN CLOCK ON
  133             TTIR=6461                       /INCREMENT THE R REG.
  134             TTCR=6471                       /CLEAR THE R REG.
  135             TTLR=6472 >                     /LOAD THE R REG.
  136             /EXTENDED MEMORY
  137             
  138       6201  CDF=6201                        /CHANGE TO DATA FIELD 0
  139       6202  CIF=6202                        /CHANGE TO INSTRUCTION FIELD 0
  140       6204  CINT=6204                       /CLEAR USER IOT
  141             
  142       6214  RDF=6214                        /READ DATA FIELD
  143       6224  RIF=6224                        /READ INSTRUCTION FIELD
  144       6234  RIB=6234                        /READ INTERRUPT BUFFER
  145       6244  RMF=6244                        /RESTORE MEMORY FIELD
  146       6254  SINT=6254                       /SKIP ON USER IOT
  147       6264  CUF=6264                        /USER FLAG OFF
  148       6274  SUF=6274                        /USER FLAG ON
  149             
  150             
  151             /EAE
  152       7405  MUY=7405                        /MULTIPLY
  153       7407  DVI=7407                        /DIVIDE
  154       7411  NMI=7411                        /NORMALIZE
  155       7413  SHL=7413                        /SHIFT ARITHMETIC LEFT
  156       7415  ASR=7415                        /ARITHMETIC SHIFT RIGHT
  157       7417  LSR=7417                        /LOGICAL SHIFT RIGHT
  158       7421  MQL=7421                        /LOAD MQ
  159       7403  SCL=7403                        /STEP COUNTER LOAD FROM MEMORY
  160       7441  SCA=7441                        /STEP COUNTER TO AC
  161       7501  MQA=7501                        /MQ TO AC
  162             
  163             IFZERO CPU-2 <
  164             
  165       7451  DPSZ=7451                       /MODE B ONLY - SKIP IF AC&MQ ARE CLEAR
  166       7447  SWBA=7447                       /CHANGE MODE TO A
  167       7431  SWAB=7431                       /CHANGE MODE TO B (ALSO DOES MQL)
  168       7403  ACS=7403                        /AC(7:11) TO SC; AC CLEARED
  169       6006  SGT=6006                        /SKIP ON GT FLAG
  170                     >
  171             
  172             
  173             
  174             /LINE PRINTER IOTS
  175       6661  LSF=6661                        /SKIP ON CHAR FLAG SET
  176       6662  LCF=6662                        /CLEAR CHAR FLAG

      /EDUSYSTEM 50 MONITOR FOR MELROSE HIGH SCHOOL #495AB                Page 5


  177       6663  LSRP=6663                       /SKIP ON NOT READY OR ON ERROR
  178       6664  LLC=6664                        /TRANSMIT CHAR TO PRINTER
  179       6665  LSP=6665                        /SET PROGRAM INTERRUPT; LP08/LE8
  180       6666  LPC=6666                        /TRANSMIT CHAR &CLEAR FLAG
  181       6667  LCP=6667                        /CLEAR PROGRAM INTERRUPT
  182       6665  LIE=6665                        /AC11 TO INTERRUPT ENABLE; LS08/LS8E
  183             
  184             /CTY
  185             
  186       6044  TPC=6044                        /LOAD TELEPRINTER AND PRINT
  187             
  188             /DISC (DF32)
  189             
  190       6601  DCMA=6601                       /CLEAR
  191       6603  DMAR=6603                       /READ
  192       6605  DMAW=6605                       /WRITE
  193       6611  DCEA=6611                       /CLEAR DISC EXTENDED ADDRESS
  194       6615  DEAL=6615                       /LOAD EXTENDED ADDRESS
  195       6621  DFSE=6621                       /SKIP ON ERROR
  196       6622  DFSC=6622                       /SKIP ON COMPLETION
  197       6616  DEAC=6616                       /READ EXTENDED ADDRESSES
  198             
  199             /DISC (RF08)
  200             
  201       6612  DSAC=6612
  202       6614  DORS=6614
  203       6615  DIML=6615
  204       6616  DIMA=6616
  205       6641  DCXA=6641
  206       6643  DXAL=6643
  207             
  208             /CARD READER IOT'S
  209       6631  RCSF=6631
  210       6632  RCRA=6632
  211       6634  RCRB=6634
  212       6635  RCNO=6635                       /8E ONLY
  213       6636  RCRC=6636                       /8E ONLY
  214       6637  RCNI=6637                       /8E ONLY
  215       6671  RCSD=6671
  216       6672  RCSE=6672
  217       6674  RCRD=6674
  218       6675  RCSI=6675                       /8E ONLY
  219       6677  RCTF=6677                       /8E ONLY
  220             
  221             /RK05 IOT'S
  222             
  223             IFZERO PHONES<
  224       6741  DSKP=   6741
  225       6742  DCLR=   6742
  226       6743  DLAG=   6743
  227       6744  DLCA=   6744
  228       6745  DRST=   6745
  229       6746  DLDC=   6746
  230       6747  DMAINT= 6747 >
  231             IFNZRO PHONES <
  232             DSKP=   6751
  233             DCLR=   6752

      /EDUSYSTEM 50 MONITOR FOR MELROSE HIGH SCHOOL #495AB                Page 6


  234             DLAG=   6753
  235             DLCA=   6754
  236             DRST=   6755
  237             DLDC=   6756
  238             DMAINT= 6757 >
  239             
  240             /DECTAPE
  241             
  242       6761  DTRA=6761
  243       6762  DTCA=6762
  244       6764  DTXA=6764
  245       6771  DTSF=6771
  246       6772  DTRB=6772
  247       6774  DTLB=6774
  248             
  249             
  250             IFZERO CPU <
  251             /KW8I           REAL TIME CLOCK
  252             
  253             CECI=6137                       /CLEAR AND ENABLE CLOCK AND INTERRUPT
  254             CSCF=6133                       /SKIP AND CLEAR FLAG IF FLAG
  255             >
  256             IFZERO CPU-1 <
  257             CECI=6315                       /CLOCK ENABLE
  258             CSCF=6301                       /SKIP ON CLOCK FLAG
  259             CCF=6302                        /CLEAR CLOCK FLAG, CLEAR ENABLE AND CLEAR BUFFER
  260             CLB=6304 >                      /LOAD BUFFER FROM AC
  261             
  262             IFZERO CPU-2 <
  263       6131  CECI=6131                       /CLOCK ENABLE
  264       6133  CSCF=6133                       /SKIP AND CLEAR FLAG IF FLAG
  265             
  266             /POWER FAIL IOT
  267             
  268       6102  SPL=6102                        /SKIP IF POWER LOW
  269             
  270             / 8/E PROCESSOR IOT
  271       6003  SRQ=6003                        /SKIP ON INTERRUPT REQUEST
  272       6004  GTF=6004                        /LINK TO AC0, GT FLAG TO AC1
  273       6005  RTF=6005                        /AC0 TO LINK, AC1 TO GT FLAG
  274       6007  CAF=6007 >                      /CLEAR ALL FLAGS
  275             
  276             IFZERO CPU-4 <
  277             CLLE=6135                       /AC11 TO INTERRUPT ENABLE FOR CLOCK
  278             CLCL=6136                       /CLEAR CLOCK FLAG
  279             CLSK=6137                       /SKIP ON CLOCK FLAG
  280             SPL=6102                        /SKIP POWER LOW
  281             CAL=6133 >                      /CLEAR AC LOW FLAG
  282             
  283                     IFNZRO DC08A <
  284             
  285             /689AG
  286             SRF=6701                        /SKIP IF RING FLAG
  287             SCF=6711                        /SKIP IF CARRIER FLAG
  288             DFCRF=6742                      /CLEAR RING FLAG
  289             CTG=6721                        /CLEAR GROUP COUNTER
  290             RRS=6702                        /READ RING STATUS

      /EDUSYSTEM 50 MONITOR FOR MELROSE HIGH SCHOOL #495AB                Page 7


  291             ITG=6731                        /INCREMENT GROUP COUNTER
  292             STR=6722                        /SET TERMINAL READY
  293             EDF=6704                        /ENABLE DATAPHONE FEATURES
  294             DDF=6714                        /DISABLE DATAPHONE FEATURES
  295             CTR=6724                        /CLEAR TERMINAL FLAG
  296             CCF=6741                        /CLEAR CARRIER FLAG
  297             RCS=6712                        /READ CARRIER STATUS
  298                     >

      /EDUSYSTEM 50 MONITOR FOR MELROSE HIGH SCHOOL #495AB                Page 8


  299             
  300             
  301             /FIP IOTS (IN ABBREVIATED FORM)
  302             
  303       0006  SEGS=0006                       /RETURN NUMBER OF FREE SEGMENTS ON DISK
  304       0040  ASD=0040                        /ASSIGN
  305       0042  REL=0042                        /RELEASE
  306       0200  REN=0200                        /RENAME
  307       0201  OPEN=0201                       /OPEN
  308       0202  CLOS=0202                       /CLOSE
  309       6603  RFILE=6603                      /READ FILE
  310       0204  PROT=0204                       /PROTECT
  311       6605  WFILE=6605                      /WRITE FILE
  312       0210  CRF=0210                        /CREATE
  313       0211  EXT=0211                        /EXTEND
  314       0212  RED=0212                        /REDUCE
  315       6613  FINF=6613                       /FILE INFORMATION
  316       0214  LIN=0214                        /LOGIN
  317       0215  LOUT=0215                       /LOGOUT
  318       6616  WHO=6616                        /WHO
  319             /DEVICE DATA BLOCK
  320             
  321       0000  DDBSTS=0                        /WORD 1,  STATUS AND UNIT NUMBER
  322       2000          DXON=2000               /XOFF SENT FLAG
  323       1000          DSI=1000                /DESTINATION IS S.I. FLAG
  324       0400          DFULL=400               /KEYBOARD BUFFER IS FULL
  325       0200          DUPL=200                /CONSOLE IN DUPLEX MODE
  326       0100          SICOM=100               /COMMAND WAITING
  327       0040          DECHO=40                /CAUSE SI TO RE-ECHO CURRENT INPUT BUFFER
  328             
  329                                             /DEVICE UNIT NUMBER IS IN BITS 6-11
  330             
  331       0001  DDBJN=1                         /WORD 2, JOB NUMBER IN 7-11
  332       0002  DDBBRK=2                        /BREAK MASK
  333       0003  DDBTIM=3                        /TIME THAT DEVICE WAS ASSIGNED
  334       0004  DDBINP=4                        /BUFFER FILL POINTER
  335       0005  DDBINC=5                        /BUFFER TOTAL COUNT
  336       0006  DDBOUC=6                        /BUFFER EMPTY COUNT
  337       0007  DDBOUP=7                        /BUFFER EMPTY POINTER

      /EDUSYSTEM 50 MONITOR FOR MELROSE HIGH SCHOOL #495AB                Page 9


  338             
  339             /JOB DATA AREA
  340             
  341       0000  JOBSTS=0                        /STATUS
  342                                             /STR0
  343       4000          JSRUN=4000              /RUN BIT
  344       2000          JSEREN=2000             /USER ERROR ENABLE
  345       1000          JCOMBD=1000             /LAST TIME THE JOB RAN AS COMPUTE BOUND
  346       0400          JSPEEK=400              /ALLOW "PEEK" AND "LOGOUT" IOT'S
  347       0200          JSACC=200               /JOB LOGGED IN UNDER PRIVILEGED ACCOUNT (1,2 OR 3)
  348       0100          JSIOT=100               /NON-RESIDENT IOT
  349       0040          JSIOTC=40               /COPY IOT RESULT TO USER
  350       0020          JSEXON=20               /EXECUTE ONLY
  351       0010          JSINER=10               /INHIBIT ERROR REPORT FROM SI. (UNTIL NEXT COMMAND)
  352                                             /BITS 9-11 ARE SYSTEM ERROR CODE
  353       0001          UUOERF=1                /IOT ERROR
  354       0002          SWPRER=2                /SWAP READ ERROR
  355       0003          SWPWER=3                /SWAP WRITE ERROR
  356       0005          DSKERR=5                /DISC ERROR
  357       0006          HUNGDV=6                /HUNG DEVICE
  358             
  359                                             /STR1
  360       4000          JSTIME=4000             /TIME IS UP
  361       2000          JSF0=2000               /FILE 0 NOT BUSY
  362       1000          JSF1=1000               /FILE 1 IS NOT BUSY
  363       0400          JSF2=400                /FILE 2 IS NOT BUSY
  364       0200          JSF3=200                /FILE 3 IS NOT BUSY
  365       0100          JSDEL=100               /KEYBOARD DELIMITER SEEN
  366       0040          JSLPT=40                /LINE PRINTER BUFFER IN USE BUT NOT FULL
  367       0020          JSTEL=20                /TELEPRINTER OUTPUT BUFFER IN USE BUT NOT FULL
  368       0010          JSPTR=10                /CHARACTERS IN READER BUFFER
  369       0004          JSPTP=4                 /PUNCH BUFFER IN USE BUT IS NOT FULL
  370       0002          JSERR=2                 /SYSTEM ERROR DETECTED
  371       0001          JSWAIT=1                /JOB NOT IN WAIT STATE
  372             
  373             
  374       0002  JOBSTB=2                        /DEVICE STATUS REGISTER (FOR RK05 DECTAPE AND CARD READER)
  375       0003  JOBWMK=3                        /WAIT MASK
  376       0005  JOBSRA=5                        /JOB RESTART ADDRESS
  377       0006  JOBERR=6                        /JOB ERROR RESTART ADDRESS
  378       0007  JOBLNK=7                        /IOT LINKAGE
  379       0010  JOBSWR=10                       /SWITCH REGISTER
  380       0011  JOBREG=11                       /PC LINK AC
  381       0014  JOBEAE=14                       /MQ MODE GT SC
  382       0016  JOBACC=16                       /ACCOUNT NUMBER
  383       0017  JOBF0=17                        /POINTER TO FILE 0 CONTROL
  384       0020  JOBF1=20                        /POINTER TO FILE 1 CONTROL
  385       0021  JOBF2=21                        /POINTER TO FILE 2 CONTROL
  386       0022  JOBF3=22                        /POINTER TO FILE 3 CONTROL
  387       0023  JOBRTM=23                       /LOW ORDER RUN TIME
  388       0024  JOBRTH=24                       /HI ORDER RUN TIME

      /EDUSYSTEM 50 MONITOR FOR MELROSE HIGH SCHOOL #495AB               Page 10


  389             
  390             /FILE CONTROL BLOCK - POINTED TO BY JOBFX, X=0,1,2,3
  391             
  392       0000  FILWPT=0                        /POINTER TO FILE RETRIEVAL WINDOW
  393       0001  FILSCT=1                        /SEGMENT NUMBER OF FIRST WINDOW ENTRY
  394       0002  FILPRO=2                        /FILE PROTECTION - BIT 9
  395       0003  FILPAR=3                        /POINTER TO RFILE OR WFILE PARAMETER BLOCK
  396       0004  FILDA=4                         /DISC ADDRESS OF RFILE OR WFILE
  397       0006  FILWC=6                         /-WORD COUNT OF RFILE OR WFILE
  398       0007  FILRES=7                        /POINTER TO FILPIF IN USER AREA
  399             
  400             /FILE RETRIEVAL WINDOW
  401             /WORD 0:        UFD LINK TO NEXT GROUP OF 7 SEGMENT POINTERS
  402             /WORDS 1-7:     SEVEN SEGMENT ADDRESSES
  403             
  404             /RFILE OR WFILE PARAMETER BLOCK - POINTED AT BY FILPAR
  405             
  406       0000  FILPFN=0                        /FUNCTION; 0603 OR 0605
  407       0001  FILPDX=1                        /DISC EXTENSION
  408       0002  FILPIF=2                        /INTERNAL FILE # (BITS 10-11) AND FIELD # (BITS 7-9)
  409       0003  FILPWC=3                        /-WORD COUNT FOR THIS TRANSFER
  410       0004  FILPCA=4                        /CORE ADDRESS FOR THIS TRANSFER
  411       0005  FILPDA=5                        /DISC ADDRESS
  412       0006  FILPRA=6                        /EXEC RETURN ADDRESS FOR THIS TRANSFER
  413       0007  FILPCT=7                        /POINTER TO FILE CONTROL BLOCK
  414             
  415             
  416             /CORE TABLE CONTROL FLAGS
  417             
  418       4000  SWAP=4000                       /SWAP REQUEST
  419       2000  LOCK=2000                       /LOCK IN CORE
  420       1000  NOTRUN=1000                     /HAS NOT BEEN SCHEDULED TO RUN
  421       0400  FIP=400                         /FILE PHANTOM
  422       0200  SI=200                          /SYSTEM INTERPRETER
  423       0140  NOHOLD=140                      /INHIBIT "NOTRUN" STATUS AFTER FOUR CONSECUTIVE FILE TRANSFERS
  424       0037  CJOB=37                         /BITS 7-11 CONTAIN THE JOB #
  425             
  426             
  427             
  428             /FIP TABLE DEFINITIONS
  429             
  430       0530  SATSIZ=530
  431       6000  JTABLE=6000
  432       6025  ENTABL=JTABLE+JOBMAX+1
  433       6265  UTABLE=ENTABL+JOBMAX+JOBMAX+JOBMAX+JOBMAX+JOBMAX+JOBMAX+JOBMAX+JOBMAX
  434       6525  RTABLE=UTABLE+JOBMAX+JOBMAX+JOBMAX+JOBMAX+JOBMAX+JOBMAX+JOBMAX+JOBMAX
  435             

      /EDUSYSTEM 50 MONITOR FOR MELROSE HIGH SCHOOL #495AB               Page 11


  436             
  437             /TABLES
  438       7001  CORTBL=7001                     /CORE ASSIGNMENT TABLE
  439       7010  L2QTB=CORTBL+7
  440       0000  IFZERO DC08A    <DCSIZE=0>
  441             IFNZRO DC08A    <DCSIZE=400>    /SIZE OF FIELD 1 DC08A CODE PLUS 689AG CODE
  442             
  443       0200  OUTREG=200                      /ACTIVE OUTPUT REGISTERS (TTY'S, LPT & PTP)
  444       0213  SKPTBL=OUTREG+NULINE+3          /START OF IOT SKIP TABLE
  445       0236  SKPTP=SKPTBL+NULINE+NULINE+3    /POSITION OF PUNCH SKIP IN SKIP TABLE
  446       0241  RINGIN=SKPTP+3                  /KEYBOARD INPUT RING BUFFER
  447       0400  ENDBUF=OUTREG+200               /END OF KEYBOARD INPUT BUFFER
  448       0057  INPUTS=ENDBUF-RINGIN%2          /NUMBER OF POSSIBLE ENTRIES IN THE KEYBOARD RING BUFFER
  449             
  450       6211  DATFLD=CDF 10                   /MONITOR DATA FIELD SELECT
  451             
  452             IFZERO EAE-20   <MQREG=1>
  453       0001  IFZERO EAE      <IFNZRO CPU&7776 <MQREG=1>
  454                              IFZERO CPU&7776 <MQREG=0>>
  455             IFNZRO OUTREG&1 <YOU GOOFED>
  456             /SUPER CRITICAL LOCATIONS
  457             /THESE LOCATIONS ARE USED TO LINK TS8, TS8II, FIP, SI AND INIT.
  458             
  459             /IT MAY BE NECESSARY TO ADJUST THEM ACCORDINGLY
  460             
  461             /DEFINED IN TS8:
  462             
  463       2573  WSCHED=2573                     /ADDRESS FOR WAIT
  464       0401  GETJTB=401                      /GETJTA
  465       1317  CORSRC=1317                     /SEARCH CORE TABLE
  466       5171  OVERLA=5171                     /FILE STUFF
  467       0574  READFI=574                      /MORE FILE STUFF
  468       0132  CONDBA=132                      /DEVTBL POINTER USED BY "PRINT" ETC.
  469       0611  RETB=611                        /RETURN A BLOCK TO FREE CORE
  470       1405  GETB=1405                       /GET A BLOCK OF FREE CORE
  471       1447  GETDB0=1447                     /GET A DDB
  472       0051  CLK1=51                         /LOW ORDER DAYTIME CLOCK
  473       0050  CLK2=50                         /HIGH ORDER DAYTIME CLOCK
  474       0166  DATE=166                        /12 BIT DATE WORD
  475       0031  TTCHAR=31                       /SAVE REG. FOR CONSOLE CHARACTERS
  476       3201  KBD00=3201                      /PROCESS KEYBOARD INPUT
  477       1205  PRINT0=1205                     /TYPE OUT A CHARACTER
  478       0562  OVRLA1=562                      /MORE FILE STUFF
  479       0605  RUNFI=605                       /SI FILE TRANSFER INITIALIZER
  480       0103  L2SF=103                        /LEVEL 2 SAVED MODE AND FIELD
  481       6572  SICLR=6572                      /SI CLEAR LINKED BUFFER
  482       2421  TIMSI=2421                      /TIMER FOR SI "COMWAT"
  483       1702  SIWAIT=1702                     /NUMBER OF SI COMMANDS BEING WAITED ON
  484       2423  TIMFIP=2423                     /TIMER FOR FIPLOCK
  485       2724  FIPLOK=2724                     /CORTBL STATUS CHECK FOR FORCE OUT
  486       0322  CLKINI=322                      /CONVERT HARDWARE CLOCK TO SYSTEM-TICKS (100MS)
  487       1602  BLT0=1602                       /BLOCK TRANSFER FROM CORE TO CORE
  488       3213  KBDSQ=3213                      /ADDRESS OF JMS TO ^S/^Q CODE

      /EDUSYSTEM 50 MONITOR FOR MELROSE HIGH SCHOOL #495AB               Page 12


  489             
  490             
  491             /DEFINED IN TS8II:
  492             
  493       0175  F1TCNT=175                      /SI DDB CHARACTER COUNT
  494       0176  F1ECNT=176                      /SI DDB EMPTY COUNT
  495       0177  F1BUF=177                       /SI DDB EMPTY BLOCK POINTER
  496       0020  DTJOB=20                        /JOB OWNING THE DECTAPE CONTROLLER
  497       0054  RKJOB=54                        /JOB OWNING RK05 CONTROLLER
  498       1175  DTSI=1175                       /SI TERMINATE A DECTAPE ON TIMER
  499       2200  DATA1=2200+DCSIZE
  500       3020  DEVTBL=DATA1+140+460            /TODO: MOVE 460 TO CONSTANT FOR RKSYS
  501       3042  DEVTBE=DEVTBL+NULINE+NULINE+2
  502       3064  JOBTBL=DEVTBE+22
  503       3111  CLKTBL=JOBTBL+JOBMAX+1
  504       3136  TTYTBL=CLKTBL+JOBMAX+1
  505       3163  PRGTBL=TTYTBL+JOBMAX+1
  506       3250  DSUTBL=PRGTBL+JOBMAX+JOBMAX+JOBMAX-7
  507       7300  RKBLK=7300                      /FIXED BLOCK FOR RK05 FILESYSTEM TRANSFERS
  508       7720  FIPBLK=7720                     /FIXED BLOCK FOR FIP IO
  509       7730  WINBAS=7730                     /ADDRESS OF THE BASIC WINDOW
  510       2420  OUTDIF=-OUTREG^2+DEVTBL         /FOR LINKING BETWEEN OUTREG AND DEVTBL
  511       0164  F1OFFJ=164                      /FOR OFF /ON COMMANDS USED BY SI
  512             IFNZRO DEVTBL&1 <YOU GOOFED>
  513             
  514             /DEFINED IN SI
  515             
  516       7270  DTSIDT=7270                     /RETURNED FROM STOPPING A DECTAPE ON TIMER
  517       7600  VERBRK=7600                     /START OF INSTALLATION DEFINED LOGIN MESSAGE
  518             /INIT VERSION 8.24 (01-JANUARY-75)
  519             /
  520             /
  521             /
  522             /
  523             /COPYRIGHT (C) 1975
  524             /DIGITAL EQUIPMENT CORPORATION, MAYNARD, MASS.
  525             /
  526             /
  527             /THIS SOFTWARE IS FURNISHED UNDER A LICENSE FOR USE ONLY
  528             /ON A SINGLE COMPUTER SYSTEM AND MAY BE COPIED ONLY WITH
  529             /THE  INCLUSION  OF  THE  ABOVE  COPYRIGHT NOTICE.  THIS
  530             /SOFTWARE, OR ANY OTHER COPIES THEREOF,  MAY NOT BE PRO-
  531             /VIDED OR OTHERWISE  MADE AVAILABLE TO ANY  OTHER PERSON
  532             /EXCEPT FOR USE ON SUCH SYSTEM  AND TO ONE WHO AGREES TO
  533             /THESE  LICENSE  TERMS.  TITLE TO AND  OWNERSHIP  OF THE
  534             /SOFTWARE SHALL REMAIN IN DEC.
  535             /
  536             /THE  INFORMATION IN THIS  DOCUMENT IS SUBJECT TO CHANGE
  537             /WITHOUT NOTICE AND SHOULD  NOT BE  CONSTRUED  AS A COM-
  538             /MITMENT BY DIGITAL EQUIPMENT CORPORATION.
  539             /
  540             /DEC   ASSUMES   NO   RESPONSIBILITY   FOR  THE  USE  OR
  541             /RELIABILITY  OF  ITS SOFTWARE ON EQUIPMENT WHICH IS NOT
  542             /SUPPLIED BY DEC.

      /EDUSYSTEM 50 MONITOR FOR MELROSE HIGH SCHOOL #495AB               Page 13


  543             
  544             /RIM AUTO-LOADER FOR TSS/8 INIT
  545       7757          RIM1=   7757
  546       7760          RIM2=   7760
  547       7400  *7400
  548 07400 3250          FIX,    DCA     RD1     /SAVE SKIP IOT
  549       7401  *7401
  550 07401 1245                  TAD     K5
  551       7402  *7402
  552 07402 1250                  TAD     RD1
  553       7403  *7403
  554 07403 3252                  DCA     RD2     /SAVE READ IOT
  555       7404  *7404
  556 07404 6224                  RIF             /CURRENT FIELD
  557       7405  *7405
  558 07405 7040                  CMA
  559       7406  *7406
  560 07406 0210                  AND     KCDF    /CREATE CDF FOR FIELD 0 OR 2
  561       7407  *7407
  562 07407 3210                  DCA     KCDF
  563       7410  *7410
  564 07410 6221          KCDF,   CDF 20
  565       7411  *7411
  566 07411 4256                  JMS     FRM     /READ NEXT FRAME; SKIP ON RETURN
  567       7412  *7412
  568 07412 3301          LOOP,   DCA     SUM     /SAVE NEW CHECKSUM
  569       7413  *7413
  570 07413 1276                  TAD     CHAR0
  571       7414  *7414
  572 07414 3277                  DCA     CHAR1   /SAVE LEFT BYTE
  573       7415  *7415
  574 07415 4247                  JMS     READ
  575       7416  *7416
  576 07416 3300                  DCA     CHAR2   /SAVE RIGHT BYTE
  577       7417  *7417
  578 07417 4256                  JMS     FRM     /LOOK AHEAD
  579       7420  *7420
  580 07420 5235                  JMP     CHKSUM  /WE HAVE THE CHECKSUM
  581       7421  *7421
  582 07421 4266                  JMS     ASSMBL  /ASSEMBLE BOTH BYTES
  583       7422  *7422
  584 07422 7420                  SNL             /DATA OR ORIGIN?
  585       7423  *7423
  586 07423 5231                  JMP     OSAVE   /DATA
  587       7424  *7424
  588 07424 3275                  DCA     ORG     /SAVE NEW ORIGIN
  589       7425  *7425
  590 07425 1277          ADD,    TAD     CHAR1
  591       7426  *7426
  592 07426 1300                  TAD     CHAR2   /SUM BOTH BYTES
  593       7427  *7427
  594 07427 1301                  TAD     SUM     /WITH THE OLD SUM
  595       7430  *7430
  596 07430 5212                  JMP     LOOP
  597       7431  *7431
  598 07431 3675          OSAVE,  DCA I   ORG     /SAVE DATA
  599       7432  *7432

      /EDUSYSTEM 50 MONITOR FOR MELROSE HIGH SCHOOL #495AB               Page 14


  600 07432 2275                  ISZ     ORG     /INCREMENT ADDRESS
  601       7433  *7433
  602 07433 7600          RM200,  7600            /COVER SKIP WITH CONSTANT
  603       7434  *7434
  604 07434 5225                  JMP     ADD
  605       7435  *7435
  606 07435 4266          CHKSUM, JMS     ASSMBL  /ASSEMBLE CHECKSUM BYTES
  607       7436  *7436
  608 07436 7041                  CIA
  609       7437  *7437
  610 07437 1301                  TAD     SUM     /SUBTRACT CALCULATED SUM
  611       7440  *7440
  612 07440 7440                  SZA             /OK?
  613       7441  *7441
  614 07441 7402                  HLT             /NO; ERROR
  615       7442  *7442
  616 07442 7126                  STL RTL         /AC=2
  617       7443  *7443
  618 07443 1210                  TAD     KCDF    /PLUS CDF TO "INIT'S" FIELD
  619       7444  *7444
  620 07444 3245                  DCA     K5      /SAVE
  621       7445  *7445
  622 07445 0005          K5,     5               /CIF CDF TO FIELD 0 OR 2
  623       7446  *7446
  624 07446 5000                  JMP     0       /JUMP INTO INIT
  625       7447  *7447
  626 07447 0000          READ,   0
  627       7450  *7450
  628 07450 7402          RD1,    HLT             /SKIP IOT
  629       7451  *7451
  630 07451 5250                  JMP     .-1
  631       7452  *7452
  632 07452 7402          RD2,    HLT             /READ IOT
  633       7453  *7453
  634 07453 3276                  DCA     CHAR0
  635       7454  *7454
  636 07454 1276                  TAD     CHAR0
  637       7455  *7455
  638 07455 5647                  JMP I   READ
  639       7456  *7456
  640 07456 0000          FRM,    0
  641       7457  *7457
  642 07457 4247                  JMS     READ    /READ A FRAME
  643       7460  *7460
  644 07460 1233                  TAD     RM200
  645       7461  *7461
  646 07461 7510                  SPA             /IS IT DATA/ORIGIN?
  647       7462  *7462
  648 07462 2256                  ISZ     FRM     /YES; SKIP ON RETURN
  649       7463  *7463
  650 07463 7750                  SPA SNA CLA     /FIELD SETTING?
  651       7464  *7464
  652 07464 5656                  JMP I   FRM     /NO
  653       7465  *7465
  654 07465 5257                  JMP     FRM+1   /YES; IGNORE IT
  655       7466  *7466
  656 07466 0000          ASSMBL, 0

      /EDUSYSTEM 50 MONITOR FOR MELROSE HIGH SCHOOL #495AB               Page 15


  657       7467  *7467
  658 07467 1277                  TAD     CHAR1   /LEFT BYTE
  659       7470  *7470
  660 07470 7106                  CLL RTL
  661       7471  *7471
  662 07471 7006                  RTL
  663       7472  *7472
  664 07472 7006                  RTL             /SHIFTED INTO POSITION
  665       7473  *7473
  666 07473 1300                  TAD     CHAR2   /PLUS RIGHT BYTE
  667       7474  *7474
  668 07474 5666                  JMP I   ASSMBL
  669       7475  *7475
  670 07475 0000          ORG,    0
  671       7476  *7476
  672 07476 0024          CHAR0,  24              /CHECKSUM CORRECTION; RIGHT BYTE
  673       7477  *7477
  674 07477 0000          CHAR1,  0
  675       7500  *7500
  676 07500 0000          CHAR2,  0
  677       7501  *7501
  678 07501 6000          SUM,    6000            /CHECKSUM CORRECTION; LEFT BYTE
  679       7601  *7601
  680 07601 1205          RIMJMP, TAD     RIMFIX
  681       7602  *7602
  682 07602 3360                  DCA     RIM2    /RESTORE RIM LOADER
  683       7603  *7603
  684 07603 1357                  TAD     RIM1    /GET SKIP IOT
  685       7604  *7604
  686 07604 5606                  JMP I   FIXA
  687       7605  *7605
  688 07605 5357          RIMFIX, JMP     RIM1
  689       7606  *7606
  690 07606 7400          FIXA,   FIX
  691       7760  *RIM2
  692 07760 5201                  JMP     RIMJMP  /EXIT FROM RIM

      /EDUSYSTEM 50 MONITOR FOR MELROSE HIGH SCHOOL #495AB               Page 16


  693             
  694             /PAGE 0
  695             
  696             FIELD 2                         /INIT LOADS ONTO DISK TRACK 2
  697       0000  *0
  698 20000 5401          JMP I   SUPERA          /JUST IN CASE!!
  699 20001 4200  SUPERA, SUPER
  700             
  701             
  702       0010  *10
  703 20010 0010  AXS1,   .
  704 20011 0011  AXS2,   .
  705             
  706       0020  SIDATA= 20                      /SYSTEM INTERPRETER DATA
  707             
  708       0032  CONSTANTS=SIDATA+12
  709       0032  *CONSTANTS
  710 20032 0002  C0002,  2
  711 20033 0003  C0003,  3
  712 20034 0004  C0004,  4
  713 20035 0005  C0005,  5
  714 20036 0007  C0007,  7
  715 20037 0037  C0037,  37
  716 20040 0100  C0100,  100
  717 20041 1000  C1000,  1000
  718 20042 7770  C7770,  7770
  719 20043 7600  C7600,  7600
  720 20044 7763  C7763,  7763
  721             DM32,
  722 20045 7740  C7740,  7740
  723             
  724       0043  JOBCON= CONSTANTS+11            /JOB CONTROL
  725             
  726       0046  FRSTOR= JOBCON+3
  727       0046  *FRSTOR
  728             
  729 20046 0046  FREE,   .                       /POINTER TO HEAD OF FREE STORAGE
  730 20047 0047  FRECNT, .                       /# FREE BLOCKS AVAILABLE
  731             
  732             
  733       0050  TIMDAT= FRSTOR+2                /CLOCK AND DATE
  734       0050  *TIMDAT
  735             
  736             /CLOCK
  737 20050 0050  CLK2,   .
  738 20051 0051  CLK1,   .
  739             
  740             
  741       0052  SCHDAT= TIMDAT+2
  742             
  743       0060  DATEND= 60                      /END OF FIELD 0 PAGE 0 DATA
  744             
  745             
  746             
  747       0155  FIPDAT= 155                     /DATA REFERENCED BY FIP
  748       0156  *FIPDAT+1
  749             

      /EDUSYSTEM 50 MONITOR FOR MELROSE HIGH SCHOOL #495AB               Page 17


  750 20156 0400  C0400,  400
  751       0156  SEGSIZ= C0400                   /# WORDS PER SEGMENT

      /EDUSYSTEM 50 MONITOR FOR MELROSE HIGH SCHOOL #495AB               Page 18


  752             
  753 20157 7000  CORTBA, CORTBL-1                /CORE ALLOCATION TABLE
  754 20160 3250  DSUTBA, DSUTBL                  /USER DISC REQUEST QUEUE
  755             
  756             /THE DATE IS KEPT AS A 12 BIT NUMBER IN THE FORMAT
  757             /DATE=((YEAR-1974)*12+(MONTH-1))*31+DAY-1
  758             
  759       0166  *DATE
  760 20166 0166  DATE,   .
  761             
  762 20167 1317  CORSRA, CORSRC
  763 20170 2573  WAITA,  WSCHED
  764       5570  WAIT=   JMP I WAITA
  765             
  766             
  767             /SUBROUTINE DISPATCHES
  768             
  769       0060  SUBDSP= DATEND
  770       0060  *SUBDSP
  771             
  772 20060 0000  CHDFA,  0
  773 20061 7402  INIF,   HLT
  774 20062 5460          JMP I   CHDFA
  775             
  776       4060  CHDF=   JMS CHDFA
  777             
  778 20063 7754  CJOBMX, -JOBMAX
  779 20064 2555  INBUF,  INBUFA
  780 20065 1200  NUMBIA, NUMBI0
  781 20066 0000  CHAR,   0
  782 20067 0000  NUMHO,  0
  783 20070 0000          0
  784 20071 0000          0
  785 20072 0000  CORCNT, 0
  786             
  787 20073 0010  C0010,  10
  788 20074 6201  C6201,  6201
  789 20075 0200  C0200,  0200
  790 20076 0177  C0177,  0177
  791             
  792 20077 2134  COMGEA, COMGE0
  793 20100 3300  DISCA,  DISC0
  794             IFZERO RKSYS < 
  795             DISCHA, DISCH0 >
  796             
  797       4501  YESNO=  JMS I .
  798 20101 2151          YESNO0
  799       4502  MESSAG= JMS I .
  800 20102 1615          MESSA0
  801       4503  OCTIN=  JMS I .
  802 20103 0652          OCTIN0
  803       4504  GETIN=  JMS I .
  804 20104 1667          GETIN0
  805       4505  OUTTLS= JMS I .
  806 20105 0534  OUTA,   OUT
  807       4506  INKRB=  JMS I .
  808 20106 0510          IN

      /EDUSYSTEM 50 MONITOR FOR MELROSE HIGH SCHOOL #495AB               Page 19


  809       4507  ZERO1=  JMS I .
  810 20107 3042          ZERO
  811       4510  CHEKCC= JMS I .
  812 20110 0520          CCCHEK
  813 20111 0005  SWBASE, SWDEX                   /SWAP TRACK FOR JOB 1
  814 20112 7777  C7777,  -1
  815 20113 7401  MC0377, -377
  816 20114 0135  OSF,    OSTRAP
  817 20115 7607  OST,    7607
  818 20116 7762  OSC,    -16
  819 20117 7607  OSA,    7607
  820 20120 0120  OSTAB,  .
  821 20121 0703          RBOOT
  822 20122 7746          7746
  823 20123 7771          -7
  824 20124 7746          7746
  825 20125 0131          KBOOT
  826 20126 0026          26
  827 20127 7774          -4
  828 20130 0026          26
  829 20131 6744  KBOOT,  DLCA
  830 20132 6746          DLDC
  831 20133 6743          DLAG
  832 20134 5031          JMP     31
  833             OSTRAP,
  834             NOPUNCH
  835       7607  *7607
  836             ENPUNCH
  837 27607 1222          TAD     KA
  838 27610 3354          DCA     7754
  839 27611 1222          TAD     KA
  840 27612 3355          DCA     7755
  841 27613 6774          DTLB
  842 27614 1223          TAD     KB
  843 27615 6766          DTLA
  844 27616 6771          DTSF
  845 27617 5216          JMP     .-1
  846 27620 1224          TAD     KC
  847 27621 5215          JMP     .-4
  848 27622 7577  KA,     7577
  849 27623 0600  KB,     600
  850 27624 0220  KC,     220
  851             /PAGE ASSIGNMENTS
  852             
  853       1000          INIP=   1000

      /EDUSYSTEM 50 MONITOR FOR MELROSE HIGH SCHOOL #495AB               Page 20


  854             
  855             /PROGRAM TO OPEN AND MODIFY SINGLE DISC REGISTERS
  856             
  857       0200  *0200
  858 20200 1263  DISCLK, TAD     KCR             /PUT OUT A CR, LF
  859 20201 4505          OUTTLS
  860 20202 1264          TAD     KLF
  861 20203 4505          OUTTLS
  862             / NOW GET AN ADDRESS FROM THE KEYBOARD
  863 20204 4273          JMS     OTIN
  864 20205 5200          JMP     DISCLK          /: IS ONLY VALID TERMINATOR
  865 20206 5200          JMP     DISCLK          /   "   "
  866             /DISC ADDRESS FOLLOWED BY ":" HAS BEEN ENTERED
  867 20207 4253  DISPLA, JMS     SPACE           /PROVIDE ELEGANT FORMAT
  868 20210 4665          JMS I   POPEN           /GET REG FROM DISC
  869 20211 1366          TAD     OPNREG          /GET THIS VALUE
  870 20212 4672          JMS I   PHACK           /DISPLAY IT
  871 20213 4253          JMS     SPACE           /CONTINUE POLICY OF ELEGANT FORMATING
  872 20214 4670          JMS I   PSAVE           /SAVE VALUE, VALUE1
  873             /REGISTER IS OPEN ---- WAIT FOR A MODIFY
  874 20215 4273          JMS     OTIN
  875 20216 5221          JMP     SHUT            /TERMINATOR WAS CR
  876 20217 5230          JMP     CLSOPN          /TERMINATOR WAS LF
  877             
  878             /: WAS TYPED ---- MUST BE NEW DISC ADDRESS
  879 20220 5207          JMP     DISPLAY
  880             
  881             /CARRIAGE RETURN MEANS CLOSE REGISTER
  882             /FIRST, SEE IF IT WAS MODIFIED
  883 20221 1371  SHUT,   TAD     INPUT
  884 20222 7710          SPA CLA
  885 20223 5200          JMP     DISCLK          /NO MODIFY
  886             /OPEN REGISTER WAS MODIFIED, SO CHANGE ON THE DISC
  887 20224 1365          TAD     VALUE1
  888 20225 3366          DCA     OPNREG
  889 20226 4666          JMS I   PCLOSE          /WRITE VALUE OUT
  890             /NOW SEND OUT LF AND START AGAIN
  891 20227 5200          JMP     DISCLK
  892             /LINE FEED MEANS CLOSE REGISTER AND OPEN THE NEXT ONE
  893 20230 1371  CLSOPN, TAD     INPUT
  894 20231 7710          SPA CLA
  895 20232 5236          JMP     .+4             /NO MODIFY
  896             /VALUE WAS MODIFIED, SO WRITE OUT NEW ONE
  897 20233 1365          TAD     VALUE1
  898 20234 3366          DCA     OPNREG
  899 20235 4666          JMS I   PCLOSE
  900             /RESPOND TO LF WITH CR
  901 20236 1263          TAD     KCR
  902 20237 4505          OUTTLS
  903 20240 1263          TAD     KCR
  904 20241 4505          OUTTLS                  /FOR TIMING (??)
  905             
  906             /NOW RESTORE ADDR WORD TO VALUE1
  907 20242 4671          JMS I   PRESTOR
  908             /NOW INCREMENT ADDRESS IN VALUE, VALUE1
  909 20243 4667          JMS I   PNEXTAD
  910             

      /EDUSYSTEM 50 MONITOR FOR MELROSE HIGH SCHOOL #495AB               Page 21


  911             /NOW TYPE OUT THIS NEW ADDRESS
  912 20244 1364          TAD     VALUE
  913 20245 4672          JMS I   PHACK
  914 20246 1365          TAD     VALUE1
  915 20247 4672          JMS I   PHACK
  916 20250 1262          TAD     KCOLON
  917 20251 4505          OUTTLS
  918 20252 5207          JMP     DISPLAY
  919             
  920             /TYPE TWO SPACES
  921             
  922 20253 0000  SPACE,  0
  923 20254 1261          TAD     KSPACE
  924 20255 4505          OUTTLS
  925 20256 1261          TAD     KSPACE
  926 20257 4505          OUTTLS
  927 20260 5653          JMP I   SPACE
  928 20261 0240  KSPACE, 0240
  929             
  930 20262 0272  KCOLON, 0272
  931 20263 0215  KCR,    0215
  932 20264 0212  KLF,    0212
  933 20265 0400  POPEN,  XOPEN
  934 20266 0406  PCLOSE, CLOSE
  935 20267 0546  PNEXTAD,        NEXTAD
  936 20270 0554  PSAVE,  SAVE
  937 20271 0562  PRESTOR,        RESTOR
  938 20272 0462  PHACK,  HACK
  939             /ROUTINE TO INPUT AN OCTAL NUMBER
  940             /ECHOES INPUT IF IT WAS VALID
  941             /CALL:  JMS OTIN
  942             /       CR TERMINATOR
  943             /       LF TERMINATOR
  944             /       : TERMINATOR
  945             /
  946             /RETURNS WITH "DOUBLE PRECISION" INPUT IN
  947             /VALUE AND VALUE1
  948             /INPUT=0 IF THERE WAS ANY, ELSE -1
  949             
  950 20273 0000  OTIN,   0
  951 20274 7240          CLA CMA
  952 20275 3371          DCA     INPUT           /NO INPUT YET
  953 20276 3364          DCA     VALUE           /SUBTOTAL
  954 20277 3365          DCA     VALUE1
  955 20300 7410          SKP
  956             
  957 20301 4505          OUTTLS
  958 20302 4506  LISTEN, INKRB
  959 20303 3367          DCA     YCHAR
  960             /IS THE INPUT A VALID TERMINATOR?
  961 20304 1367          TAD     YCHAR
  962 20305 1372          TAD     KMCOLON         /COLON?
  963 20306 7450          SNA
  964 20307 5351          JMP     COEXIT          /YES
  965 20310 1373          TAD     KMLF            /LF?
  966 20311 7450          SNA
  967 20312 5352          JMP     LFEXIT          /YES

      /EDUSYSTEM 50 MONITOR FOR MELROSE HIGH SCHOOL #495AB               Page 22


  968 20313 1374          TAD     KMCR            /CR?
  969 20314 7450          SNA
  970 20315 5353          JMP     CREXIT          /YES
  971             /NOT A VALID TERMINATOR --- IS IT A VALID OCTAL DIGIT?
  972 20316 1375          TAD     KMEIGHT
  973 20317 7120          STL
  974 20320 1073          TAD     C0010
  975 20321 7430          SZL                     /IS IT A VALID OCTAL DIGIT?
  976 20322 5356          JMP     NOTOK           /NO
  977             /COMES HERE WITH A VALID OCTAL DIGIT
  978 20323 2371          ISZ     INPUT           /REMEMBER THAT THERE IS INPUT
  979 20324 7000          NOP
  980             /NOW ADD THIS DIGIT TO THE DOUBLE PRECISION TOTAL
  981 20325 3370          DCA     XCHAR
  982             /FIRST, SHIFT HIGH-ORDER WORD LEFT ONE PLACE
  983 20326 1364          TAD     VALUE
  984 20327 7104          CLL RAL
  985 20330 7104          CLL RAL
  986 20331 7104          CLL RAL
  987 20332 3364          DCA     VALUE
  988             /NOW GET LEFT-MOST LOW-ORDER DIGIT
  989 20333 1365          TAD     VALUE1
  990 20334 7006          RTL
  991 20335 7006          RTL
  992 20336 0036          AND     C0007
  993             /MOVE THIS DIGIT INTO THE HIGH ORDER WORD
  994 20337 1364          TAD     VALUE
  995 20340 3364          DCA     VALUE
  996             /NOW ADD NEW INPUT DIGIT
  997 20341 1365          TAD     VALUE1
  998 20342 7104          CLL RAL
  999 20343 7104          CLL RAL
 1000 20344 7104          CLL RAL
 1001 20345 1370          TAD     XCHAR
 1002 20346 3365          DCA     VALUE1
 1003 20347 1367          TAD     YCHAR
 1004 20350 5301          JMP     LISTEN-1        /NOW GO ECHO INPUT
 1005             
 1006 20351 2273  COEXIT, ISZ     OTIN
 1007 20352 2273  LFEXIT, ISZ     OTIN
 1008 20353 1367  CREXIT, TAD     YCHAR
 1009 20354 4505          OUTTLS                  /ECHO TERMINATOR
 1010 20355 5673          JMP I   OTIN
 1011             
 1012 20356 7200  NOTOK,  CLA
 1013 20357 4502          MESSAG
 1014 20360 0362          NOTOK1
 1015 20361 5274          JMP     OTIN+1
 1016 20362 4077  NOTOK1, TEXT " ?_"
      20363 3700
 1017             
 1018             
 1019 20364 0000  VALUE,  0
 1020 20365 0000  VALUE1, 0
 1021 20366 0000  OPNREG, 0
 1022 20367 0000  YCHAR,  0
 1023 20370 0000  XCHAR,  0

      /EDUSYSTEM 50 MONITOR FOR MELROSE HIGH SCHOOL #495AB               Page 23


 1024 20371 7777  INPUT,  -1
 1025             
 1026 20372 7506  KMCOLON,        -0272
 1027 20373 0060  KMLF,   -0212+":
 1028 20374 7775  KMCR,   -0215+212
 1029 20375 7725  KMEIGHT,        -0270+215
 1030             
 1031       0400  *0400
 1032 20400 0000  XOPEN,  0
 1033 20401 4251          JMS     CONVERT         /MAKE A DISC ADDRESS OUT OF VALUE, VALUE1
 1034 20402 1205          TAD     READCOM         /WE ARE READING
 1035 20403 4213          JMS     DISK
 1036 20404 5600          JMP I   XOPEN
 1037 20405 6603  READCOM,        6603            /DMAR
 1038             
 1039             /ROUTINE TO CLOSE A DISC REGISTER
 1040 20406 0000  CLOSE,  0
 1041 20407 1212          TAD     WRITECOM
 1042 20410 4213          JMS     DISK
 1043 20411 5606          JMP I   CLOSE
 1044 20412 6605  WRITECOM,       6605            /DMAW
 1045             
 1046             /DISC TRANSFER ROUTINE
 1047 20413 0000  DISK,   0
 1048 20414 3234          DCA     DISCIOT         /READ IOT OR WRITE IOT
 1049             /NOW HAVE TO SET UP 7750,7751 IN FIELD 0
 1050             /REMEMBER WHAT FIELD WE'RE IN NOW
 1051             /SO WE CAN RESTORE
 1052 20415 6224          RIF
 1053 20416 1220          TAD     .+2
 1054 20417 3225          DCA     XFIELD
 1055 20420 6201          CDF                     /NOW GO TO DATA FIELD 0
 1056 20421 7240          CLA CMA
 1057 20422 3644          DCA I   P7750           /LOOKING FOR ONE WORD
 1058 20423 1250          TAD     POPNREG
 1059 20424 3645          DCA I   P7751           /READ INTO OPNREG
 1060             /7750, 7751 ARE SET --- RESTORE DATA FIELD
 1061             /ALSO, SET DISC TO TRANSFER INTO THIS FIELD
 1062 20425 0000  XFIELD, 0
 1063 20426 6224          RIF
 1064                     IFZERO  RF08-40 <TAD I PDISCHI>
 1065 20427 6615          6615                    /DIML; FIELD , NO INTERRUPTS
 1066 20430 1646  IFZERO  RF08 <TAD I PDISCHI     /PICK UP HIGH ADDRESS
 1067 20431 6643          6643                    /DXAL>
 1068 20432 7200          CLA                     /DEAL DOESN'T CLEAR AC
 1069 20433 1647          TAD I   PDISCLO         /PICK UP LOW ADDRESS
 1070 20434 0000  DISCIOT,        0               /DMAR OR DMAW
 1071 20435 6621          6621                    /DFSE -- ANY ERRORS?
 1072 20436 7610  IFZERO  RF08 <SKP CLA           /NO
 1073 20437 7402          HLT                     /YES
 1074 20440 6622          6622                    /DFSC --- DONE?
 1075 20441 5235          JMP     .-4             /NO>
 1076             IFZERO  RF08-40 <HLT
 1077                     6622
 1078                     JMP     .-3>
 1079 20442 6601          DCMA                    /DON'T LEAVE DISK FLAG UP
 1080 20443 5613          JMP I   DISK            /YES

      /EDUSYSTEM 50 MONITOR FOR MELROSE HIGH SCHOOL #495AB               Page 24


 1081             
 1082 20444 7750  P7750,  7750
 1083 20445 7751  P7751,  7751
 1084             
 1085 20446 0503  PDISCHI,        DISCHI
 1086 20447 0504  PDISCLO,        DISCLO
 1087 20450 0365  POPNREG,        OPNREG-1
 1088             
 1089             
 1090             
 1091             /ROUTINE TO CONVERT THE DOUBLE PRECISION NUMBER
 1092             /IN VALUE, VALUE1 INTO AN RF08 DISC ADDRESS
 1093             /PUT IT IN DISCHI, DISCLO
 1094             
 1095 20451 0000  CONVERT,        0
 1096 20452 7200          CLA
 1097 20453 1660          TAD I   PVALUE
 1098             IFZERO  RF08-40 <ANDN   C0177
 1099                     CLL RTL
 1100                     RTL
 1101                     RTL>
 1102 20454 3646          DCA I   PDISCHI
 1103 20455 1661          TAD I   PVALU1
 1104 20456 3647          DCA I   PDISCLO
 1105 20457 5651          JMP I   CONVERT
 1106 20460 0364  PVALUE, VALUE
 1107 20461 0365  PVALU1, VALUE1
 1108             
 1109             /ROUTINE TO TYPE THE 4 OCTAL DIGITS IN THE AC
 1110             /ON THE TELEPRINTER
 1111             
 1112 20462 0000  HACK,   0
 1113 20463 7104          CLL RAL
 1114 20464 3305          DCA     XHACK
 1115 20465 1306          TAD     KM4
 1116 20466 3302          DCA     XCNT            /4 DIGITS
 1117 20467 1305  YHACK,  TAD     XHACK
 1118 20470 7006          RTL
 1119 20471 7004          RAL
 1120 20472 3305          DCA     XHACK
 1121 20473 1305          TAD     XHACK
 1122 20474 0036          AND     C0007
 1123 20475 1307          TAD     K260
 1124 20476 4505          OUTTLS
 1125 20477 2302          ISZ     XCNT
 1126 20500 5267          JMP     YHACK
 1127 20501 5662          JMP I   HACK
 1128 20502 0000  XCNT,   0
 1129 20503 0000  DISCHI, 0
 1130 20504 0000  DISCLO, 0
 1131 20505 0000  XHACK,  0
 1132 20506 7774  KM4,    -4
 1133 20507 0260  K260,   260
 1134             
 1135             /ROUTINE TO GET A CHAR FROM THE KEYBOARD
 1136 20510 0000  IN,     0
 1137 20511 6031          KSF

      /EDUSYSTEM 50 MONITOR FOR MELROSE HIGH SCHOOL #495AB               Page 25


 1138 20512 5311          JMP     .-1
 1139 20513 4320          JMS     CCCHEK          /IS IT A CONTROL-C?
 1140 20514 6036          KRB
 1141 20515 0076          AND     C0177
 1142 20516 1075          TAD     C0200           /IN CASE OF PARITY TERMINALS
 1143 20517 5710          JMP I   IN              /RETURN
 1144             
 1145 20520 0000  CCCHEK, 0
 1146 20521 6031          KSF
 1147 20522 5720          JMP I   CCCHEK
 1148 20523 6034          KRS                     /WHAT'S THE CHARACTER?
 1149 20524 0076          AND     C0177           /PARITY TERMINAL?
 1150 20525 1333          TAD     KCRC
 1151 20526 7500          SMA
 1152 20527 7020          CML
 1153 20530 7650          SNA CLA
 1154 20531 5401          JMP I   SUPERA          /HE WANTS TO RESTART - ^C
 1155 20532 5720          JMP I   CCCHEK          /NO ^C
 1156             
 1157 20533 7775  KCRC,   -3                      /- ^C, STRIPPED OF PARITY BIT
 1158             
 1159             /ROUTINE TO TELEPRINT A CHAR
 1160             
 1161 20534 0000  OUT,    0
 1162 20535 7000          NOP     /CHANGE TO "KSF" IF DESIRED TO TERMINATE PRINT-OUT UPON TYPE-AHEAD
 1163 20536 7410          SKP                     /NO
 1164 20537 5343          JMP     OUT0            /YES; DON'T WASTE TIME WITH FURTHER PRINTING
 1165 20540 6046          TLS
 1166 20541 6041          TSF
 1167 20542 5341          JMP     .-1
 1168 20543 7200  OUT0,   CLA
 1169 20544 4510          CHEKCC
 1170 20545 5734          JMP I   OUT

      /EDUSYSTEM 50 MONITOR FOR MELROSE HIGH SCHOOL #495AB               Page 26


 1171             
 1172             /ROUTINE TO INCREMENT THE DOUBLE-PRECISION VALUE
 1173             /IN VALUE, VALUE1
 1174             
 1175 20546 0000  NEXTAD, 0
 1176 20547 7200          CLA
 1177 20550 2661          ISZ I   PVALU1
 1178 20551 5746          JMP I   NEXTAD
 1179 20552 2660          ISZ I   PVALUE
 1180 20553 5746          JMP I   NEXTAD
 1181             
 1182             /ROUTINE TO SAVE VALUE, VALUE1
 1183 20554 0000  SAVE,   0
 1184 20555 1660          TAD I   PVALUE
 1185 20556 3370          DCA     SAVE1
 1186 20557 1661          TAD I   PVALU1
 1187 20560 3371          DCA     SAVE2
 1188 20561 5754          JMP I   SAVE
 1189             
 1190             /ROUTINE TO RESTORE VALUE, VALUE1
 1191 20562 0000  RESTOR, 0
 1192 20563 1370          TAD     SAVE1
 1193 20564 3660          DCA I   PVALUE
 1194 20565 1371          TAD     SAVE2
 1195 20566 3661          DCA I   PVALU1
 1196 20567 5762          JMP I   RESTOR
 1197 20570 0000  SAVE1,  0
 1198 20571 0000  SAVE2,  0
 1199             

      /EDUSYSTEM 50 MONITOR FOR MELROSE HIGH SCHOOL #495AB               Page 27


 1200             
 1201       0600          *600
 1202 20600 0000  LOGMES, 0                       /PUT MESSAGE OF THE DAY IN SI
 1203 20601 4501          YESNO
 1204 20602 1531          LOGM1                   /"PROMO?"
 1205 20603 5600          JMP I   LOGMES          /NO
 1206 20604 4500          DISC                    /YES, READ SI INTO FIELD 1
 1207             IFZERO RKSYS <
 1208                     6603                    /DMAR
 1209                     SIDEX+1
 1210                     DISCHK                  /CHECK FOR DISK OK >
 1211             IFNZRO RKSYS <
 1212 20605 0010          0010                    /READ, FIELD 1, DRIVE 0
 1213 20606 0000          0                       /TRACK 0
 1214                     >
 1215 20607 4502  LOG2LG, MESSAG                  /MESSAGE TOO LONG
 1216 20610 0704          LOGM2                   /"END WITH ALTMODE"
 1217 20611 7240          STA
 1218 20612 1245          TAD     LOGST           /VERBRK
 1219 20613 3010          DCA     AXS1
 1220 20614 1245          TAD     LOGST
 1221 20615 3067          DCA     NUMHO           /FOR GETCH
 1222 20616 7001          IAC
 1223 20617 3070          DCA     NUMHO+1
 1224 20620 6211          DATFLD                  /LOGIN MESSAGE TO FIELD 1
 1225 20621 4646  LOGNEX, JMS I   GETCHA          /GET A CHARACTER INTO BUFFER
 1226 20622 5207          JMP     LOG2LG          /MESSAGE TOO LONG
 1227 20623 1113          TAD     MC0377          /IS IT AN ESCAPE OR ALTMODE?
 1228 20624 7001          IAC                     /TEST FOR MODEL 35 ALTMODE
 1229 20625 7440          SZA
 1230 20626 7001          IAC                     /TEST FOR ALTMODE
 1231 20627 7440          SZA
 1232 20630 1247          TAD     LOGESC          /TEST FOR ESCAPE
 1233 20631 7640          SZA CLA
 1234 20632 5221          JMP     LOGNEX          /NOT ESCAPE OR ALTMODE, GET ANOTHER CHAR
 1235 20633 1010          TAD     AXS1
 1236 20634 3066          DCA     CHAR
 1237 20635 3466          DCA I   CHAR            /A 0 ENDS THE MESSAGE IN SI
 1238 20636 4060          CHDF
 1239 20637 4502          MESSAG                  /ECHO $CR-LF
 1240 20640 0715          LOGM3
 1241 20641 4500          DISC                    /WRITE OUT SI
 1242             IFZERO RKSYS <
 1243                     6605                    /DMAW
 1244                     SIDEX+1
 1245                     DISCHK                  /CHECK FOR DISK OK >
 1246             IFNZRO RKSYS <
 1247 20642 4010          4010                    /WRITE, FIELD 1, DRIVE 0
 1248 20643 0000          0                       /TRACK 0
 1249                     >
 1250 20644 5600          JMP I   LOGMES
 1251             
 1252 20645 7600  LOGST,  VERBRK                  /START OF INSTALLATION MESSAGE OF THE DAY
 1253 20646 1711  GETCHA, GETCH
 1254 20647 0142  LOGESC, 375-233                 /ALT MODE MINUS ESCAPE

      /EDUSYSTEM 50 MONITOR FOR MELROSE HIGH SCHOOL #495AB               Page 28


 1255             
 1256 20650 7520  OCI260, -260
 1257 20651 0000  OCTINT, 0
 1258             
 1259 20652 0000  OCTIN0, 0
 1260 20653 3251          DCA     OCTINT
 1261 20654 7240          STA
 1262 20655 1064          TAD     INBUF
 1263 20656 3010          DCA     AXS1
 1264 20657 1410  OCTIN1, TAD I   AXS1
 1265 20660 3011          DCA     AXS2
 1266 20661 1011          TAD     AXS2
 1267 20662 1250          TAD     OCI260
 1268 20663 7510          SPA
 1269 20664 5300          JMP     OCTIN2
 1270 20665 1042          TAD     C7770
 1271 20666 7500          SMA
 1272 20667 5300          JMP     OCTIN2
 1273 20670 1073          TAD     C0010
 1274 20671 3011          DCA     AXS2
 1275 20672 1251          TAD     OCTINT
 1276 20673 7106          CLL RTL
 1277 20674 7004          RAL
 1278 20675 1011          TAD     AXS2
 1279 20676 3251          DCA     OCTINT
 1280 20677 5257          JMP     OCTIN1
 1281 20700 7300  OCTIN2, CLL CLA
 1282 20701 1251          TAD     OCTINT
 1283 20702 5652          JMP I   OCTIN0
 1284             
 1285             
 1286             IFZERO RKSYS <
 1287             /AFTER LOAD OR DUMP, BOOT BACK TO WHATEVER OPERATING SYSTEM IS ON THE RF08.
 1288             /THIS WAY, INIT CAN BE USED TO LOAD/DUMP OS/8.
 1289             RBOOT,  6641                    /DCXA   /CLEAR RF08 EXTENDED DISK ADDRESS
 1290                     DCEA                    /AND EVERYTHING ELSE
 1291                     -200                    /CLA
 1292                     DMAR
 1293                     DFSC
 1294                     5352                    /JMP .
 1295                     5752                    /JMP I .-1 
 1296             >
 1297             IFNZRO RKSYS <
 1298             /AFTER LOAD OR DUMP, WE JUST RELOAD INIT.
 1299 20703 5001  RBOOT,  JMP     SUPERA
 1300             >

      /EDUSYSTEM 50 MONITOR FOR MELROSE HIGH SCHOOL #495AB               Page 29


 1301             
 1302       0714  CRLF=   LOGM2+10
 1303 20704 0516  LOGM2,  TEXT "END WITH ALTMODE_"
      20705 0440
      20706 2711
      20707 2410
      20710 4001
      20711 1424
      20712 1517
      20713 0405
      20714 3700
 1304 20715 4437  LOGM3,  TEXT "$_"
      20716 0000
 1305 20717 2331  SYSTEM, TEXT "SYSTEM"
      20720 2324
      20721 0515
      20722 0000
 1306 20723 1411  LIBARY, TEXT "LIBRARY"
      20724 0222
      20725 0122
      20726 3100
 1307 20727 1720  OPRAT,  TEXT "OPERATOR"
      20730 0522
      20731 0124
      20732 1722
      20733 0000
 1308 20734 4020  PASWRD, TEXT " PASSWORD? "
      20735 0123
      20736 2327
      20737 1722
      20740 0477
      20741 4000
 1309 20742 7777  TAB,    -01
 1310 20743 7767          -11
 1311 20744 7757          -21
 1312 20745 7737          -41
 1313 20746 7727          -51                     /THE NEXT WORD MUST BE POSITIVE
 1314 20747 3723  MSG,    TEXT "_SI"
      20750 1100
 1315 20751 3706          TEXT "_FIP"
      20752 1120
      20753 0000
 1316 20754 3711          TEXT "_INIT"
      20755 1611
      20756 2400
 1317 20757 3724          TEXT "_TS8"
      20760 2370
      20761 0000
 1318 20762 3720          TEXT "_PUTR"
      20763 2524
      20764 2200
 1319 20765 4040  UPAROW, TEXT "  ^  "
      20766 3640
      20767 4000

      /EDUSYSTEM 50 MONITOR FOR MELROSE HIGH SCHOOL #495AB               Page 30


 1320             
 1321       1000  *INIP
 1322             
 1323             /ZERO OUT FIRST 6 TRACKS IN PREPARATION FOR BUILDING NEW SYSTEM
 1324             
 1325 21000 4501  SBUILD, YESNO
 1326 21001 1262          REALLY
 1327 21002 5401          JMP I   SUPERA          /LUCKILY WE CAUGHT HIM/HER
 1328 21003 4507          ZERO1                   /ZERO FIELD 1
 1329             IFZERO RKSYS <
 1330                     TAD     C0051           /START AT TRACK 5, FIELD 1
 1331             SB2,    DCA     SB3
 1332                     DISC
 1333                     DMAW                    /WRITE A FIELD OF ZEROES TO DISK
 1334             SB3,    .-.
 1335                     DISCHK                  /MAKE SURE DISK IS OK
 1336                     TAD     SB3
 1337                     TAD     C7770           /GO TO PREVIOUS TRACK
 1338                     SMA                     /ARE WE THROUGH?
 1339                     JMP     SB2             /NO >
 1340             
 1341             IFNZRO  RKSYS <
 1342 21004 1035          TAD     C0005           /START AT TRACK 5
 1343 21005 3210  SB2,    DCA     SB3
 1344 21006 4500          DISC
 1345 21007 4010          4010                    /WRITE, FIELD 1, DRIVE 0
 1346 21010 0000  SB3,    .-.                     /TRACK #
 1347 21011 1210          TAD     SB3
 1348 21012 1112          TAD     C7777           /DECREMENT TRACK #
 1349 21013 7500          SMA                     /ARE WE THROUGH? 
 1350 21014 5205          JMP     SB2             /NO >
 1351                     
 1352 21015 1302          TAD     MSGA            /INITIALIZE ADDRESS OF MESSAGES
 1353 21016 3222          DCA     MSGB
 1354 21017 1303          TAD     TABA            /INITIALIZE TABLE POINTER
 1355 21020 3305          DCA     TABB
 1356 21021 4502  BUILD1, MESSAG                  /ASK FOR A TAPE
 1357 21022 0000  MSGB,   .-.
 1358 21023 1701          TAD I   PATXAD
 1359 21024 3210          DCA     SB3
 1360 21025 4502          MESSAG
 1361 21026 0765          UPAROW                  /"  ^  "
 1362             SB4,
 1363 21027 6030  IFNZRO CPU&7776 <6030>          /ON 8E, CLEAR FLAG, BUT NO READER RUN
 1364             IFZERO CPU&7776 <KCC >          /CLEAR FLAG
 1365 21030 4506          INKRB                   /WAIT FOR A KEY TO BE PRESSED
 1366 21031 1043          TAD     C7600           /LEADER?
 1367 21032 7440          SZA
 1368 21033 1044          TAD     C7763           /CARRIAGE RETURN?
 1369 21034 7640          SZA CLA
 1370 21035 5227          JMP     SB4             /NO
 1371 21036 7240          STA
 1372 21037 3304          DCA     FLAG
 1373             
 1374             /ROUTINE TO PATCH THE DISK. A BINARY TAPE IS READ, AND THE CORRESPONDING
 1375             /WORDS ON A DISK TRACK ARE PATCHED. THE FIELD SETTING ON THE TAPE
 1376             /DETERMINES WHICH TRACK WILL BE PATCHED. A TAPE WITHOUT A FIELD SETTING

      /EDUSYSTEM 50 MONITOR FOR MELROSE HIGH SCHOOL #495AB               Page 31


 1377             /WILL PATCH TRACK 5. A TAPE WITHOUT AN ORIGIN WILL LOAD STARTING AT 0
 1378             /HENCE A SAVE FORMAT TAPE WILL LOAD PROPERLY INTO THE SWAP TRACK FOR
 1379             /JOB NUMBER 1.
 1380             
 1381 21040 4500  PATCH,  DISC
 1382             IFZERO RKSYS <
 1383                     DMAR                    /READ TRACK 5 INTO CORE
 1384             C0051,  0051                    /TO PATCH IT IF NO FIELD SETTING
 1385                     DISCHK                  /MAKE SURE THE DISK IS OK >
 1386             IFNZRO RKSYS <
 1387 21041 0010          0010                    /READ, FIELD 1, DRIVE 0
 1388 21042 0005          0005                    /TRACK 5 >
 1389             
 1390 21043 1241          TAD     .-2             /NOW REMEMBER WHAT IS IN FIELD 1
 1391 21044 3320          DCA     PATW            /SO IT WILL BE PROPERLY RE-WRITTEN
 1392 21045 1320          TAD     PATW
 1393 21046 3323          DCA     PATR
 1394 21047 6211          CDF     10              /USE FIELD 1 AS BUFFER
 1395 21050 4714          JMS I   BINTA           /READ THE BINARY TAPE
 1396 21051 5306          JMP     PATFLD          /A FIELD SETTING HAS BEEN ENCOUNTERED
 1397 21052 7450          SNA                     /END OF TAPE - WAS THERE A CHECKSUM ERROR?
 1398 21053 4315          JMS     PATRW           /NO, SO WRITE OUT FIELD 1
 1399 21054 2304          ISZ     FLAG            /WHERE DID WE COME FROM?
 1400 21055 5401          JMP I   SUPERA          /BACK TO SUPERVISOR
 1401 21056 4060          CHDF
 1402 21057 7640          SZA CLA                 /CONTINUE BUILDING - WAS THERE ERROR?
 1403 21060 5276          JMP     BHUH            /YES - TRY AGAIN
 1404 21061 1705          TAD I   TABB            /NO - WAS RIGHT TAPE LOADED?
 1405 21062 1323          TAD     PATR
 1406 21063 7640          SZA CLA
 1407 21064 5276          JMP     BHUH            /NO - TRY AGAIN
 1408 21065 7001          IAC
 1409 21066 1210          TAD     SB3             /ADDRESS OF LAST CHARACTER TYPED + 1
 1410 21067 3222          DCA     MSGB            /SET UP FOR NEXT MESSAGE
 1411 21070 2305          ISZ     TABB
 1412 21071 1705          TAD I   TABB            /ARE WE THROUGH?
 1413 21072 7710          SPA CLA
 1414 21073 5221          JMP     BUILD1          /NO
 1415 21074 5675          JMP I   .+1             /YES
 1416 21075 2012          SUPREF
 1417             
 1418 21076 4502  BHUH,   MESSAG
 1419 21077 3552          HUH2
 1420 21100 5221          JMP     BUILD1
 1421             
 1422 21101 1664  PATXAD, BUFPTR
 1423 21102 0756  MSGA,   MSG+7                   /AC IS -7 WHEN THIS IS TADDED
 1424 21103 0742  TABA,   TAB
 1425 21104 0000  FLAG,   0
 1426 21105 0000  TABB,   0
 1427             
 1428             IFZERO RKSYS <
 1429             PATFLD, IAC                     /TRACK IS IN BITS 6-8, MAKE IT FIELD 1
 1430                     DCA     PATR            /AND SAVE IT 
 1431                     >
 1432             IFNZRO RKSYS <
 1433 21106 7012  PATFLD, RTR

      /EDUSYSTEM 50 MONITOR FOR MELROSE HIGH SCHOOL #495AB               Page 32


 1434 21107 7010          RAR                     /TRACK IS IN BITS 6-8, MOVE IT TO 9-11
 1435 21110 3323          DCA     PATR            /AND SAVE IT
 1436                     >
 1437             
 1438 21111 4315          JMS     PATRW           /WRITE PREVIOUS TRACK; READ NEW ONE
 1439 21112 5713          JMP I   BINT3A          /AND CONTINUE
 1440 21113 7732  BINT3A, BINT3
 1441 21114 7600  BINTA,  BINTAP
 1442             
 1443 21115 0000  PATRW,  0
 1444 21116 4500          DISC
 1445             IFZERO RKSYS <
 1446                     DMAW                    /WRITE THE PREVIOUS TRACK
 1447             PATW,   .-.                     /TRACK FOR PREVIOUS PATCHING
 1448                     DISCHK                  /MAKE SURE THE DISK IS OK
 1449                     >
 1450             IFNZRO RKSYS <
 1451 21117 4010          4010                    /WRITE THE PREVIOUS TRACK (FIELD 1, DRIVE 0)
 1452 21120 0000  PATW,   .-.                     /TRACK FOR PREVIOUS PATCHING
 1453                     >
 1454 21121 4500          DISC
 1455             IFZERO RKSYS <
 1456                     DMAR                    /READ IN NEW TRACK
 1457             PATR,   1                       /TRACK FOR UPCOMING PATCHING
 1458                     DISCHK                  /MAKE SURE THE DISK IS OK
 1459                     >
 1460             IFNZRO RKSYS <
 1461 21122 0010          0010                    /READ IN NEW TRACK (FIELD 1, DRIVE 0)
 1462 21123 0001  PATR,   1                       /TRACK FOR UPCOMING PATCHING
 1463                     >
 1464 21124 1323          TAD     PATR
 1465 21125 3320          DCA     PATW            /REMEMBER WHICH TRACK WE'RE WORKING ON
 1466 21126 5715          JMP I   PATRW           /AND RETURN
 1467             
 1468             /SYSTEM INITIALIZATION
 1469 21127 4500  SYSINI, DISC                    /READ INIT INTO FIELD 2
 1470             IFZERO RKSYS <
 1471                     DMAR
 1472                     0022
 1473                     DISCHK                  /MAKE SURE DISK IS OK 
 1474                     >
 1475             IFNZRO RKSYS <
 1476 21130 0020          0020                    /READ, FIELD 2, DRIVE 0
 1477 21131 0002          0002                    /TRACK 2
 1478                     >
 1479 21132 6223          CIF CDF 20              /NOW GO THERE
 1480 21133 5334          JMP     .+1
 1481 21134 1332          TAD     .-2
 1482 21135 3061          DCA     INIF            /SET UP CHDF
 1483 21136 4751          JMS I   SYSPER          /INITIALIZE FIP
 1484 21137 4500          DISC                    /LOAD FIELD 0
 1485             IFZERO RKSYS <
 1486                     6603                    /DMAR
 1487                     TS8DEX
 1488                     DISCHK                  /CHECK FOR DISK OK
 1489                     >
 1490             IFNZRO RKSYS <

      /EDUSYSTEM 50 MONITOR FOR MELROSE HIGH SCHOOL #495AB               Page 33


 1491 21140 0000          0000                    /READ, FIELD 0, DRIVE 0
 1492 21141 0003          0003                    /TRACK 3
 1493                     >       
 1494 21142 1353          TAD     DVTBA
 1495 21143 3352          DCA     INIT0
 1496 21144 1752  SYSI1,  TAD I   INIT0
 1497 21145 3060          DCA     CHDFA
 1498 21146 4460          JMS I   CHDFA
 1499 21147 2352          ISZ     INIT0
 1500 21150 5344          JMP     SYSI1
 1501             
 1502 21151 4116  SYSPER, PERSET
 1503 21152 0000  INIT0,  0                       /VARIABLE DVTB POINTER
 1504 21153 1165  DVTBA,  DVTB                    /ADDRESS OF DVTB
 1505 21154 3705  XTELL,  TEXT "_EXEC DDT LOADED_"
      21155 3005
      21156 0340
      21157 0404
      21160 2440
      21161 1417
      21162 0104
      21163 0504
      21164 3700
 1506             
 1507 21165 3031  DVTB,   CLEAR                   /READ MONITOR II INTO DATFLD
 1508 21166 1407          CORINI
 1509 21167 2122          DSKINI
 1510 21170 2032          DATEIN
 1511 21171 2413          TIMEIN
 1512 21172 1246          START

      /EDUSYSTEM 50 MONITOR FOR MELROSE HIGH SCHOOL #495AB               Page 34


 1513             
 1514       1200  *INIP+200
 1515             /NUMBER INPUT
 1516             /CALL   NUMBIN
 1517             /       NOT A NUMBER
 1518             /       # IN AC
 1519             
 1520       4465  NUMBIN= JMS I   NUMBIA
 1521             
 1522 21200 0000  NUMBI0, 0
 1523 21201 3070          DCA     NUMAGN          /NUMBER MAGNITUDE
 1524 21202 7346          CLL STA RTL             /MAXIMUM OF TWO DIGITS IN NUMBER
 1525 21203 3242          DCA     NUMCNT
 1526 21204 4643          JMS I   NUMSKP          /SKIP LEADING TABS AND SPACES
 1527 21205 5600          JMP I   NUMBI0          /NOTHING THERE
 1528 21206 1066  NUMBI1, TAD     CHAR
 1529 21207 1244          TAD     NUMM9
 1530 21210 7540          SMA SZA
 1531 21211 5232          JMP     NUMBI3          /NOT A NUMBER
 1532 21212 1245          TAD     NUMP9
 1533 21213 7510          SPA
 1534 21214 5232          JMP     NUMBI3          /NOT A NUMBER
 1535 21215 3066          DCA     CHAR
 1536 21216 2242          ISZ     NUMCNT
 1537 21217 7410          SKP
 1538 21220 5600          JMP I   NUMBI0          /TOO MANY DIGITS
 1539 21221 1070          TAD     NUMAGN          / * 1
 1540 21222 7106          CLL RTL                 / * 4
 1541 21223 1070          TAD     NUMAGN          / * 5
 1542 21224 7004          RAL                     / * 10
 1543 21225 1066          TAD     CHAR
 1544 21226 3070          DCA     NUMAGN
 1545 21227 4477          COMGET
 1546 21230 5232          JMP     NUMBI3          /NO MORE CHARACTERS
 1547 21231 5206          JMP     NUMBI1
 1548             
 1549 21232 7200  NUMBI3, CLA
 1550 21233 1033          TAD     C0003           /HAVE ANY DIGITS BEEN FOUND?
 1551 21234 1242          TAD     NUMCNT
 1552 21235 7650          SNA CLA
 1553 21236 5600          JMP I   NUMBI0          /NO
 1554 21237 2200          ISZ     NUMBI0
 1555 21240 1070          TAD     NUMAGN
 1556 21241 5600          JMP I   NUMBI0
 1557             
 1558       0070  NUMAGN= NUMHO+1
 1559 21242 0000  NUMCNT, 0
 1560 21243 1602  NUMSKP, SKIPS
 1561 21244 7507  NUMM9,  -"9
 1562 21245 0011  NUMP9,  11

      /EDUSYSTEM 50 MONITOR FOR MELROSE HIGH SCHOOL #495AB               Page 35


 1563             
 1564 21246 0000  START,  0
 1565 21247 6762          DTCA
 1566 21250 6022          PCF
 1567             
 1568                     IFZERO D689-4   <
 1569                     EDF                     /TURN ON DATA PHONES
 1570                     DFCRF
 1571                     CCF             >
 1572             
 1573 21251 6041          TSF                     /WAIT FOR CONSOLE FLAG FROM DIALOG
 1574 21252 5251          JMP     .-1
 1575 21253 6042          TCF
 1576 21254 6012          RRB
 1577 21255 6032          KCC
 1578 21256 6203          CIF CDF
 1579                     IFNZRO DC08A    <
 1580                     T1ON            >
 1581                     IFZERO DC08A    <
 1582                                     IFZERO CPU-1    <
 1583                                     CLL CMA /LOAD CLOCK BUFFER
 1584                                     CCF CLB         >
 1585                                     >
 1586                     IFZERO DC08A    <
 1587 21257 6131  IFNZRO CPU-4 <CECI>
 1588             IFZERO CPU-4 <IAC
 1589                     CLLE
 1590                     CLA>
 1591                                     >
 1592             
 1593                     IFZERO LPT-1    <LCP>   /CLEAR INTERRUPT FOR LPT
 1594             
 1595 21260 6001          ION
 1596 21261 5570          WAIT
 1597             
 1598             
 1599 21262 0225  REALLY, TEXT "BUILD? "
      21263 1114
      21264 0477
      21265 4000
 1600             
 1601             /ASK WHETHER TO READ OR WRITE
 1602 21266 0000  RW,     0
 1603 21267 7300          CLA CLL
 1604 21270 6224          RIF
 1605 21271 1074          TAD     C6201
 1606 21272 3061          DCA     INIF            /INITIALIZE CHDF
 1607 21273 4060          CHDF
 1608 21274 1666          TAD I   RW
 1609 21275 3277          DCA     .+2
 1610 21276 4502  RW1,    MESSAG
 1611 21277 0000          .-.                     /CRLF OR "TAPE "
 1612 21300 4502          MESSAG
 1613 21301 3224          RDORWT                  /READ OR WRITE?
 1614 21302 4504          GETIN
 1615 21303 1464          TAD I   INBUF           /FIRST CHARACTER
 1616 21304 1315          TAD     RWMR            /R?

      /EDUSYSTEM 50 MONITOR FOR MELROSE HIGH SCHOOL #495AB               Page 36


 1617 21305 7100          CLL
 1618 21306 7440          SZA                     /YES
 1619 21307 1316          TAD     RWMW            /W? SET LINK
 1620 21310 7640          SZA CLA
 1621 21311 5276          JMP     RW1             /NOT R OR W
 1622 21312 7006          RTL                     /0 FOR R, 2 FOR W
 1623 21313 2266          ISZ     RW
 1624 21314 5666          JMP I   RW
 1625 21315 7456  RWMR,   -"R
 1626 21316 7773  RWMW,   "R-"W
 1627             
 1628 21317 7001  KEBOOT, IAC
 1629 21320 7106          CLL RTL
 1630 21321 1120  RFBOOT, TAD     OSTAB
 1631 21322 3010          DCA     AXS1
 1632 21323 1410          TAD I   AXS1
 1633 21324 3114          DCA     OSF
 1634 21325 1410          TAD I   AXS1
 1635 21326 3115          DCA     OST
 1636 21327 1410          TAD I   AXS1
 1637 21330 3116          DCA     OSC
 1638 21331 1410          TAD I   AXS1
 1639 21332 3117          DCA     OSA
 1640             /BOOTWTRAP FOR DEVICE OF YOUR CHOICE -- SET FOR DECTAPE HERE
 1641 21333 4060  OSB,    CHDF
 1642 21334 1514          TAD I   OSF
 1643 21335 6201          CDF
 1644 21336 3515          DCA I   OST
 1645 21337 2114          ISZ     OSF
 1646 21340 2115          ISZ     OST
 1647 21341 2116          ISZ     OSC
 1648 21342 5333          JMP     OSB
 1649 21343 6765          DTRA DTXA               /MAKE LAST TAPE FLAP (LOAD/DUMP)
 1650 21344 6203          CDF CIF
 1651 21345 5517          JMP I   OSA

      /EDUSYSTEM 50 MONITOR FOR MELROSE HIGH SCHOOL #495AB               Page 37


 1652             
 1653       1400  *INIP+400
 1654             
 1655 21400 0060  FREND,  -FIPBLK                 /END OF FREE CORE
 1656 21401 3053  LODDTA, LODDT                   /LOAD XDDT INTO FIELD 1
 1657 21402 7777  XDDFLG, -1
 1658 21403 0000  CORFLD, 0
 1659 21404 0000  CORLNK, 0
 1660 21405 0000  CORJMS, 0                       /ISZ I  CONDBA IF ^S/^Q FEATURE DISABLED
 1661 21406 3213  CORCSQ, KBDSQ                   /LOCATION OF JMS FOR ^S FEATURE
 1662             
 1663 21407 0000  CORINI, 0
 1664 21410 2202          ISZ     XDDFLG          /DID HE WANT EXEC DDT?
 1665 21411 4601          JMS I   LODDTA          /YES
 1666 21412 1205          TAD     CORJMS
 1667 21413 6201          CDF
 1668 21414 7440          SZA
 1669 21415 3606          DCA I   CORCSQ          /NO!
 1670 21416 1203          TAD     CORFLD          /HOW MANY USER FIELDS DID HE SAY
 1671 21417 7450          SNA                     /NO RESPONSE
 1672 21420 7001          IAC                     /ASSUME 1 USER FIELD
 1673 21421 3072          DCA     CORCNT
 1674 21422 1072          TAD     CORCNT
 1675 21423 7040          CMA                     /INIT CORE SEARCH ROUTINE
 1676 21424 3010          DCA     AXS1
 1677 21425 7146          CLL CMA RTL
 1678 21426 1167          TAD     CORSRA
 1679 21427 3011          DCA     AXS2
 1680 21430 7001          IAC
 1681 21431 1010          TAD     AXS1
 1682 21432 3411          DCA I   AXS2
 1683 21433 1157          TAD     CORTBA
 1684 21434 7040          CMA
 1685 21435 1010          TAD     AXS1
 1686 21436 3411          DCA I   AXS2
 1687 21437 1157          TAD     CORTBA
 1688 21440 3011          DCA     AXS2
 1689 21441 7132          CLL CML RTR             /ASSIGN AND LOCK DATFLD
 1690 21442 3411          DCA I   AXS2            /NOW UNLOCK ALL USER FIELDS
 1691 21443 2010          ISZ     AXS1
 1692 21444 5242          JMP     .-2
 1693 21445 7126          STL RTL
 1694 21446 1072          TAD     CORCNT
 1695 21447 7106          CLL RTL
 1696 21450 3072          DCA     CORCNT
 1697 21451 1072          TAD     CORCNT
 1698 21452 1160          TAD     DSUTBA
 1699 21453 1073          TAD     C0010           /MUST START IN MULTIPLE OF 8
 1700 21454 0042          AND     C7770
 1701 21455 3446          DCA I   FREE
 1702 21456 1446          TAD I   FREE
 1703 21457 6211          DATFLD
 1704 21460 3204          DCA     CORLNK
 1705 21461 1323          TAD     CORGEA
 1706 21462 3322          DCA     CORF1
 1707 21463 1204  CORIN1, TAD     CORLNK
 1708 21464 1073          TAD     C0010

      /EDUSYSTEM 50 MONITOR FOR MELROSE HIGH SCHOOL #495AB               Page 38


 1709 21465 3011          DCA     AXS2
 1710 21466 1011  CORIN4, TAD     AXS2
 1711 21467 1200          TAD     FREND
 1712 21470 7650          SNA CLA
 1713 21471 5301          JMP     CORIN2          /DONE
 1714 21472 1011          TAD     AXS2
 1715 21473 3604          DCA I   CORLNK
 1716 21474 1011          TAD     AXS2
 1717 21475 3204          DCA     CORLNK
 1718 21476 2010          ISZ     AXS1
 1719 21477 5263          JMP     CORIN1
 1720 21500 7402          HLT                     /OOPS!!!
 1721 21501 1722  CORIN2, TAD I   CORF1           /ANY EXTRA FREE CORE TO BE GENERATED?
 1722 21502 7450          SNA
 1723 21503 5313          JMP     CORIN3
 1724 21504 3011          DCA     AXS2
 1725 21505 2322          ISZ     CORF1
 1726 21506 1722          TAD I   CORF1
 1727 21507 7041          CIA
 1728 21510 3200          DCA     FREND
 1729 21511 2322          ISZ     CORF1
 1730 21512 5266          JMP     CORIN4
 1731 21513 3604  CORIN3, DCA I   CORLNK          /LAST LINK IS ZERO
 1732 21514 1010          TAD     AXS1
 1733 21515 7001          IAC
 1734 21516 6201          CDF
 1735 21517 3447          DCA I   FRECNT
 1736 21520 4060          CHDF
 1737 21521 5607          JMP I   CORINI
 1738             
 1739             
 1740             
 1741             
 1742 21522 0000  CORF1,  0
 1743 21523 0241  CORGEA, RINGIN
 1744 21524 0000  FRETEL, 0
 1745 21525 4502          MESSAG
 1746 21526 1555          CY50
 1747                     IFNZRO CPU-2 <IAC>
 1748 21527 7126          IFZERO CPU-2 <STL RTL>
 1749 21530 5724          JMP I   FRETEL
 1750 21531 3716  LOGM1,  TEXT "_NEW LOGIN MESSAGE? "
      21532 0527
      21533 4014
      21534 1707
      21535 1116
      21536 4015
      21537 0523
      21540 2301
      21541 0705
      21542 7740
      21543 0000
 1751 21544 6660  FREQUE, TEXT "60 HERTZ POWER? "
      21545 4010
      21546 0522
      21547 2432
      21550 4020

      /EDUSYSTEM 50 MONITOR FOR MELROSE HIGH SCHOOL #495AB               Page 39


      21551 1727
      21552 0522
      21553 7740
      21554 0000
 1752 21555 6560  CY50,   TEXT "50 HERTZ ASSUMED_"
      21556 4010
      21557 0522
      21560 2432
      21561 4001
      21562 2323
      21563 2515
      21564 0504
      21565 3700

      /EDUSYSTEM 50 MONITOR FOR MELROSE HIGH SCHOOL #495AB               Page 40


 1753             
 1754       1600  *INIP+600
 1755             
 1756             /SKIP LEADING SPACES AND TABS
 1757             /CALL   JMS SKIPS
 1758             /       BUFFER EMPTY
 1759             /       NORMAL RETURN
 1760             
 1761 21600 7540  SKISPA, -240
 1762 21601 0027  SKITAB, 240-211
 1763             
 1764 21602 0000  SKIPS,  0
 1765 21603 4477  SKIPS1, COMGET
 1766 21604 5602          JMP I   SKIPS           /NONE LEFT
 1767 21605 1200          TAD     SKISPA
 1768 21606 1066          TAD     CHAR
 1769 21607 7440          SZA
 1770 21610 1201          TAD     SKITAB
 1771 21611 7650          SNA CLA
 1772 21612 5203          JMP     SKIPS1
 1773 21613 2202          ISZ     SKIPS
 1774 21614 5602          JMP I   SKIPS
 1775             
 1776 21615 0000  MESSA0, 0
 1777 21616 6214          RDF
 1778 21617 1074          TAD     C6201
 1779 21620 3243          DCA     MESSA2
 1780 21621 4060          CHDF
 1781 21622 1615          TAD I   MESSA0
 1782 21623 3264          DCA     BUFPTR
 1783 21624 2215          ISZ     MESSA0
 1784 21625 1664  MESSA1, TAD I   BUFPTR          /PICK UP NEXT WORD
 1785 21626 7450          SNA                     /DONE?
 1786 21627 5243          JMP     MESSA2          /YES
 1787 21630 7012          RTR                     /GET LEFT HALF OF WORD
 1788 21631 7012          RTR
 1789 21632 7012          RTR
 1790 21633 4245          JMS     PRINTI          /PRINT IT
 1791 21634 1664          TAD I   BUFPTR
 1792 21635 0265          AND     K0077
 1793 21636 7450          SNA                     /DONE?
 1794 21637 5243          JMP     MESSA2          /YES
 1795 21640 4245          JMS     PRINTI          /PRINT IT
 1796 21641 2264          ISZ     BUFPTR          /NEXT WORD
 1797 21642 5225          JMP     MESSA1
 1798             
 1799 21643 0000  MESSA2, .-.                     /CDF TO RESTORE DATA FIELD
 1800 21644 5615          JMP I   MESSA0          /RETURN
 1801             
 1802             
 1803 21645 0000  PRINTI, 0
 1804 21646 0265          AND     K0077
 1805 21647 1266          TAD     K7741
 1806 21650 7450          SNA                     /BACKARROW?
 1807 21651 5257          JMP     PRCRLF          /YUP - TIME FOR CARRIAGE RETURN, LINE FEED
 1808 21652 7510          SPA
 1809 21653 1040          TAD     C0100           /RESTORE BIT 5

      /EDUSYSTEM 50 MONITOR FOR MELROSE HIGH SCHOOL #495AB               Page 41


 1810 21654 1037          TAD     C0037
 1811 21655 4505  PRINT2, OUTTLS                  /PRINT THE CHARACTER
 1812 21656 5645          JMP I   PRINTI          /RETURN
 1813             
 1814 21657 1307  PRCRLF, TAD     CM215           /GET A CARRIAGE RETURN
 1815 21660 7041          CIA
 1816 21661 4505          OUTTLS
 1817 21662 1310          TAD     C0212           /AND NOW LINE FEED
 1818 21663 5255          JMP     PRINT2
 1819             
 1820 21664 0000  BUFPTR, 0
 1821 21665 0077  K0077,  0077
 1822 21666 7741  K7741,  7741
 1823             
 1824 21667 0000  GETIN0, 0
 1825 21670 7240  GETIN1, STA
 1826 21671 1064          TAD     INBUF
 1827 21672 3010          DCA     AXS1            /FOR GETCH
 1828 21673 1064          TAD     INBUF
 1829 21674 3067          DCA     NUMHO
 1830 21675 1305          TAD     GETIN3          /MINUS THE LAST LOCATION IN THE BUFFER
 1831 21676 3070          DCA     NUMHO+1
 1832 21677 4311  GETIN2, JMS     GETCH           /GET A CHARACTER INTO THE BUFFER
 1833 21700 5270          JMP     GETIN1          /BUFFER FULL; TRY AGAIN
 1834 21701 1306          TAD     CM212           /HAS HE TYPED A CR (OR LINE FEED)?
 1835 21702 7650          SNA CLA
 1836 21703 5667          JMP I   GETIN0          /YES, WE'RE ALL THROUGH HERE
 1837 21704 5277          JMP     GETIN2          /NO, GET ANOTHER CHARACTER
 1838             
 1839 21705 5203  GETIN3, -INBUFA-20
 1840 21706 7566  CM212,  -212
 1841 21707 7563  CM215,  -215
 1842 21710 0212  C0212,  212

      /EDUSYSTEM 50 MONITOR FOR MELROSE HIGH SCHOOL #495AB               Page 42


 1843             
 1844             /SUBROUTINE TO GET A CHARACTER, AND PUT IT IN THE BUFFER.
 1845             /RETURN CALL PLUS 1 IF TOO MANY CHARACTERS WERE TYPED.
 1846             /RETURN CALL PLUS 2 WITH CHARACTER IN AC IS THE NORMAL RETURN.
 1847             /UPON RUBOUT, ECHOES RUBBED CHARACTERS, BUT NOT PAST BEGINNING OF BUFFER.
 1848             
 1849 21711 0000  GETCH,  0
 1850 21712 0144  GETESC, 377-233
 1851 21713 4506  GETCH1, INKRB
 1852 21714 3066  GETCH2, DCA     CHAR
 1853 21715 1066          TAD     CHAR
 1854 21716 1113          TAD     MC0377
 1855 21717 7450          SNA                     /IS IT A RUBOUT?
 1856 21720 5341          JMP     GETCH3          /YES, GO WORRY ABOUT IT
 1857 21721 1312          TAD     GETESC          /IS IT ESCAPE?
 1858 21722 7640          SZA CLA                 /YES; DON'T ECHO
 1859 21723 1066          TAD     CHAR
 1860 21724 4505          OUTTLS                  /ECHO CHARACTER
 1861 21725 1010          TAD     AXS1
 1862 21726 1070          TAD     NUMHO+1         /THIS SHOULD BE MINUS THE LAST ADDRESS IN THE BUFFER
 1863 21727 7700          SMA CLA                 /HAVE WE OVERRUN THE END OF THE BUFFER?
 1864 21730 5361          JMP     GETCH5          /YES
 1865 21731 1066          TAD     CHAR
 1866 21732 3410          DCA I   AXS1            /ALL OK, NOW SAVE THE CHAR IN THE BUFFER
 1867 21733 1066          TAD     CHAR
 1868 21734 1307          TAD     CM215
 1869 21735 7640          SZA CLA                 /WAS THAT A CARRIAGE RETURN?
 1870 21736 5356          JMP     GETCH4          /NO
 1871 21737 1310          TAD     C0212           /GET LINE FEED AND ECHO, STORE IT
 1872 21740 5314          JMP     GETCH2
 1873             
 1874 21741 1010  GETCH3, TAD     AXS1            /HE TYPED A RUBOUT
 1875 21742 3066          DCA     CHAR            /SAVE BUFFER POINTER
 1876 21743 1010          TAD     AXS1
 1877 21744 7041          CIA
 1878 21745 1067          TAD     NUMHO           /THIS SHOULD BE THE INITIAL VALUE OF AXS1
 1879 21746 7740          SMA SZA CLA             /IS HE BACKING UP TOO FAR?
 1880 21747 5313          JMP     GETCH1          /YES, JUST IGNORE THE RUBOUT
 1881 21750 1466          TAD I   CHAR            /GOT GET THE RUBBED-OUT CHARACTER
 1882 21751 4505          OUTTLS                  /AND ECHO IT
 1883 21752 7240          STA
 1884 21753 1010          TAD     AXS1            /NOW BACK UP AXS1
 1885 21754 3010          DCA     AXS1
 1886 21755 5313          JMP     GETCH1
 1887             
 1888 21756 1066  GETCH4, TAD     CHAR            /PUT CHAR IN AC FOR RETURN
 1889 21757 2311          ISZ     GETCH           //SKIP ON RETURN
 1890 21760 5711          JMP I   GETCH           /AND RETURN
 1891             
 1892 21761 4502  GETCH5, MESSAG                  /THE DUMMY IS TOO PROLIFIC WITH THE TYPING!!
 1893 21762 3547          HUH
 1894 21763 5711          JMP I   GETCH

      /EDUSYSTEM 50 MONITOR FOR MELROSE HIGH SCHOOL #495AB               Page 43


 1895             
 1896       2000  *INIP+1000
 1897             
 1898             /INIT BOOTSTRAP - LOAD TRACK 2 INTO FIELD 0
 1899             
 1900             
 1901 22000 3232  INBOOT, DCA     DATEIN          /SAVE AC
 1902 22001 4500          DISC
 1903             IFZERO RKSYS <
 1904                     DMAR                    /READ TRACK 2 TO FIELD 0
 1905                     0020
 1906                     >
 1907             IFNZRO RKSYS <
 1908 22002 0000          0000                    /READ, FIELD 0, DRIVE 0
 1909 22003 0002          0002                    /TRACK 2
 1910                     >
 1911 22004 1232          TAD     DATEIN          /RESTORE AC
 1912             IFZERO RKSYS <
 1913                     DFSC
 1914                     JMP     .-1
 1915                     >
 1916                     / NOTHING SPECIAL TO DO FOR RKSYS
 1917 22005 6203          CIF CDF                 /AWAY TO FIELD 0, IF WE AREN'T THERE ALREADY
 1918 22006 3060          DCA     CHDFA           /AC SAYS WHERE TO JUMP
 1919 22007 1074          TAD     C6201
 1920 22010 3615          DCA I   INIFA
 1921 22011 5460          JMP I   CHDFA           /SO JUMP THERE
 1922             
 1923 22012 1217  SUPREF, TAD     SUPFUG          /REFRESH
 1924 22013 1216  SUPST,  TAD     SYSINA          /START
 1925 22014 5200          JMP     INBOOT          /BOOT IN FRESH COPY OF INIT
 1926             
 1927 22015 0061  INIFA,  INIF
 1928 22016 1127  SYSINA, SYSINI
 1929 22017 3142  SUPFUG, REFCO0-SYSINI

      /EDUSYSTEM 50 MONITOR FOR MELROSE HIGH SCHOOL #495AB               Page 44


 1930             
 1931             /DATE INPUT
 1932             /DATE=((YEAR-1974)*12+(MONTH-1))*31+DAY-1
 1933             
 1934 22020 2471  DATMUL, DMUL
 1935 22021 7563  CMCR,   -215
 1936 22022 0014  C0012,  14
 1937 22023 0037  C0031,  37
 1938                     DECIMAL
 1939 22024 7763  DM13,   -13
 1940 22025 0013  D11,    11
 1941 22026 0037  D31,    31
 1942 22027 7666  DM74,   -74
 1943                     OCTAL
 1944 22030 0000  DATMON, 0
 1945 22031 0000  DATDAY, 0
 1946             
 1947 22032 0000  DATEIN, 0
 1948 22033 7300          CLA CLL
 1949 22034 4502          MESSAG                  /MONTH-DAY-YEAR:
 1950 22035 2111          DATMES
 1951 22036 4504          GETIN
 1952 22037 7240          STA
 1953 22040 1064          TAD     INBUF
 1954 22041 3010          DCA     AXS1
 1955 22042 4465          NUMBIN                  /MONTH
 1956 22043 5233          JMP     DATEIN+1
 1957 22044 1224          TAD     DM13
 1958 22045 7121          STL IAC
 1959 22046 1225          TAD     D11
 1960 22047 7430          SZL                     /0<MONTH<13?
 1961 22050 5233          JMP     DATEIN+1        /NO
 1962 22051 3230          DCA     DATMON
 1963 22052 4465          NUMBIN                  /DAY
 1964 22053 5233          JMP     DATEIN+1
 1965 22054 1045          TAD     DM32
 1966 22055 7120          STL
 1967 22056 1226          TAD     D31
 1968 22057 7430          SZL                     /0<DAY<32?
 1969 22060 5233          JMP     DATEIN+1        /NO
 1970 22061 3231          DCA     DATDAY
 1971 22062 4465          NUMBIN
 1972 22063 5233          JMP     DATEIN+1
 1973 22064 1227          TAD     DM74
 1974 22065 7510          SPA                     /WAY OUT OF LINE?
 1975 22066 5233          JMP     DATEIN+1        /YES
 1976 22067 3070          DCA     NUMHO+1
 1977 22070 1222          TAD     C0012
 1978 22071 4620          JMS I   DATMUL
 1979 22072 1230          TAD     DATMON
 1980 22073 1071          TAD     NUMHO+2
 1981 22074 3070          DCA     NUMHO+1
 1982 22075 3067          DCA     NUMHO
 1983 22076 1223          TAD     C0031
 1984 22077 4620          JMS I   DATMUL
 1985 22100 1070          TAD     NUMHO+1
 1986 22101 7440          SZA                     /IS DATE OVERFLOWED?

      /EDUSYSTEM 50 MONITOR FOR MELROSE HIGH SCHOOL #495AB               Page 45


 1987 22102 5233          JMP     DATEIN+1        /YES
 1988 22103 1231          TAD     DATDAY
 1989 22104 1071          TAD     NUMHO+2
 1990 22105 6201          CDF
 1991 22106 3566          DCA I   DATE
 1992 22107 4060          CHDF
 1993 22110 5632          JMP I   DATEIN
 1994             
 1995 22111 1517  DATMES, TEXT "MONTH-DAY-YEAR: "
      22112 1624
      22113 1055
      22114 0401
      22115 3155
      22116 3105
      22117 0122
      22120 7240
      22121 0000
 1996             
 1997 22122 0000  DSKINI, 0                       /CLEAR USER DISK REQUEST QUEUE
 1998 22123 6211          DATFLD
 1999 22124 1072          TAD     CORCNT
 2000 22125 1160          TAD     DSUTBA
 2001 22126 3072          DCA     CORCNT
 2002 22127 7240          STA
 2003 22130 3472          DCA I   CORCNT          /MARK END OF TABLE
 2004 22131 6601          DCMA
 2005 22132 4060          CHDF
 2006 22133 5722          JMP I   DSKINI

      /EDUSYSTEM 50 MONITOR FOR MELROSE HIGH SCHOOL #495AB               Page 46


 2007             
 2008       4477  COMGET= JMS I COMGEA
 2009             
 2010 22134 0000  COMGE0, 0
 2011 22135 1410          TAD I   AXS1
 2012 22136 3066          DCA     CHAR
 2013 22137 1066          TAD     CHAR
 2014 22140 1221          TAD     CMCR
 2015 22141 7650          SNA CLA                 /IS IT A CARRIAGE RETURN?
 2016 22142 5345          JMP     .+3             /YES - RESET AXS1 SO NEXT CALL FINDS CR
 2017 22143 2334          ISZ     COMGE0          /NO
 2018 22144 5734          JMP I   COMGE0
 2019             
 2020 22145 7240          STA
 2021 22146 1010          TAD     AXS1
 2022 22147 3010          DCA     AXS1            /BACK UP POINTER
 2023 22150 5734          JMP I   COMGE0
 2024             
 2025 22151 0000  YESNO0, 0
 2026 22152 1751          TAD I   YESNO0
 2027 22153 2351          ISZ     YESNO0
 2028 22154 3356          DCA     .+2
 2029 22155 4502  YESNO1, MESSAG
 2030 22156 0000          0
 2031 22157 4504          GETIN
 2032 22160 1464          TAD I   INBUF
 2033 22161 1374          TAD     YESNON
 2034 22162 7450          SNA
 2035 22163 5370          JMP     YESNO2
 2036 22164 1375          TAD     YESNOY
 2037 22165 7640          SZA CLA
 2038 22166 5371          JMP     YESNO3          /HE DIDN'T ANSWER Y OR N
 2039 22167 2351          ISZ     YESNO0
 2040 22170 5751  YESNO2, JMP I   YESNO0          /RETURN, SKIPPING IF YES
 2041 22171 4502  YESNO3, MESSAG
 2042 22172 3271          YN
 2043 22173 5355          JMP     YESNO1          /ASK HIM/HER AGAIN
 2044             
 2045 22174 7462  YESNON, -"N
 2046 22175 7765  YESNOY, "N-"Y

      /EDUSYSTEM 50 MONITOR FOR MELROSE HIGH SCHOOL #495AB               Page 47


 2047             
 2048       2200  *INIP+1200
 2049             
 2050             /ROUTINE TO DUMP SELECTED FIELD
 2051             
 2052 22200 4321  CD0,    JMS     ASKFLD
 2053 22201 3203          DCA     .+2
 2054 22202 4340          JMS     ASKSTA          /INITIALIZE STARTING ADDRESS
 2055 22203 0000          .-.
 2056 22204 4277          JMS     SP
 2057 22205 1067  CD1,    TAD     NUMHO           /PRINT ADDRESS OF DATA TO BE PRINTED
 2058 22206 4763          JMS I   HACKA
 2059 22207 1042          TAD     C7770
 2060 22210 3070          DCA     NUMHO+1         /8 DATA WORDS PER LINE
 2061 22211 4764  CD2,    JMS I   SPACEA          /PUT IN SOME SPACE
 2062 22212 1467          TAD I   NUMHO           /GET DATA WORD
 2063 22213 4763          JMS I   HACKA           /PRINT IT
 2064 22214 2067          ISZ     NUMHO           /ARE WE THROUGH?
 2065 22215 5221          JMP     CD3             /NO
 2066 22216 4502          MESSAG
 2067 22217 0714          CRLF
 2068 22220 5401          JMP I   SUPERA
 2069             
 2070 22221 2070  CD3,    ISZ     NUMHO+1
 2071 22222 5211          JMP     CD2
 2072 22223 4502          MESSAG
 2073 22224 0714          CRLF
 2074 22225 4510          CHEKCC
 2075 22226 5205          JMP     CD1
 2076             
 2077             /ROUTINE TO COMPARE A SELECTED FIELD TO FIELD 1 AND PRINT
 2078             /OUT ANY DIFFERENCES THERE MIGHT BE. SR0=1 CAUSES A 0 IN THE FIRST
 2079             /SELECTED FIELD TO BE IGNORED; ASSUMED TO BE JMS ENTRY POINTS, ETC.
 2080             
 2081 22227 4321  MF0,    JMS     ASKFLD          /GET FIRST FIELD
 2082 22230 3241          DCA     MF1
 2083 22231 1241          TAD     MF1
 2084 22232 3254          DCA     MF3
 2085 22233 4321          JMS     ASKFLD          /GET SECOND FIELD
 2086 22234 3243          DCA     MF5
 2087 22235 1243          TAD     MF5
 2088 22236 3271          DCA     MF6
 2089 22237 4340          JMS     ASKSTA          /INITIALIZE STARTING ADDRESS
 2090 22240 4277          JMS     SP
 2091 22241 0000  MF1,    .-.
 2092 22242 1467          TAD I   NUMHO
 2093 22243 0000  MF5,    .-.
 2094 22244 7041          CIA
 2095 22245 1467          TAD I   NUMHO
 2096 22246 7640          SZA CLA
 2097 22247 5254          JMP     MF3
 2098 22250 4510  MF2,    CHEKCC
 2099 22251 2067          ISZ     NUMHO
 2100 22252 5241          JMP     MF1
 2101 22253 5401          JMP I   SUPERA
 2102             
 2103 22254 0000  MF3,    .-.

      /EDUSYSTEM 50 MONITOR FOR MELROSE HIGH SCHOOL #495AB               Page 48


 2104 22255 1467          TAD I   NUMHO
 2105 22256 7640          SZA CLA
 2106 22257 5263          JMP     MF4
 2107 22260 7604          LAS
 2108 22261 7710          SPA CLA
 2109 22262 5250          JMP     MF2
 2110 22263 1067  MF4,    TAD     NUMHO
 2111 22264 4763          JMS I   HACKA
 2112 22265 4764          JMS I   SPACEA
 2113 22266 1467          TAD I   NUMHO
 2114 22267 4763          JMS I   HACKA
 2115 22270 4764          JMS I   SPACEA
 2116 22271 0000  MF6,    .-.
 2117 22272 1467          TAD I   NUMHO
 2118 22273 4763          JMS I   HACKA
 2119 22274 4502          MESSAG
 2120 22275 0714          CRLF
 2121 22276 5250          JMP     MF2
 2122             
 2123             /ROUTINE TO INITIALIZE OUTPUT TO EITHER LPT OR TO TTY. SENDS OUT A
 2124             /CHARACTER TO BOTH, TO SEE WHICH GETS BACK FIRST WITH A FLAG.
 2125             
 2126 22277 0000  SP,     0
 2127 22300 7240          STA
 2128 22301 6666          LPC                     /INVALID CHARACTER TO MAKE SURE IT COMES BACK FAST
 2129 22302 1320          TAD     K0213
 2130 22303 6046          TLS                     /VALID CHARACTER IN CASE OF PARALLEL LA30 OR SUCH
 2131 22304 7200          CLA
 2132 22305 6661  SP1,    LSF
 2133 22306 5312          JMP     SP2
 2134 22307 1317          TAD     OUT2
 2135 22310 3105          DCA     OUTA
 2136 22311 5314          JMP     SP3
 2137 22312 6041  SP2,    TSF
 2138 22313 5305          JMP     SP1
 2139 22314 4502  SP3,    MESSAG
 2140 22315 0714          CRLF
 2141 22316 5677          JMP I   SP
 2142 22317 2355  OUT2,   OUTLP
 2143 22320 0213  K0213,  0213
 2144             
 2145 22321 0000  ASKFLD, 0
 2146 22322 4502          MESSAG
 2147 22323 3235          FIELD1
 2148 22324 4504          GETIN
 2149 22325 4503          OCTIN
 2150 22326 1042          TAD     C7770
 2151 22327 7120          STL
 2152 22330 1073          TAD     C0010
 2153 22331 7430          SZL
 2154 22332 5737          JMP I   SUPHA
 2155 22333 7006          RTL
 2156 22334 7004          RAL
 2157 22335 1074          TAD     C6201
 2158 22336 5721          JMP I   ASKFLD
 2159 22337 4233  SUPHA,  SUPHUH
 2160             

      /EDUSYSTEM 50 MONITOR FOR MELROSE HIGH SCHOOL #495AB               Page 49


 2161 22340 0000  ASKSTA, 0
 2162 22341 4502          MESSAG
 2163 22342 2347          START1
 2164 22343 4504          GETIN
 2165 22344 4503          OCTIN
 2166 22345 3067          DCA     NUMHO
 2167 22346 5740          JMP I   ASKSTA
 2168 22347 2324  START1, TEXT "START AT - "
      22350 0122
      22351 2440
      22352 0124
      22353 4055
      22354 4000
 2169             
 2170 22355 0000  OUTLP,  0
 2171 22356 6666          LPC
 2172 22357 6661          LSF
 2173 22360 5357          JMP     .-1
 2174 22361 7200          CLA
 2175 22362 5755          JMP I   OUTLP
 2176             
 2177 22363 0462  HACKA,  HACK
 2178 22364 0253  SPACEA, SPACE
 2179 22365 3714  LDXRS,  TEXT "_LOAD, DUMP, START, ETC? "
      22366 1701
      22367 0454
      22370 4004
      22371 2515
      22372 2054
      22373 4023
      22374 2401
      22375 2224
      22376 5440
      22377 0524
      22400 0377
      22401 4000

      /EDUSYSTEM 50 MONITOR FOR MELROSE HIGH SCHOOL #495AB               Page 50


 2180             
 2181             /TIME INPUT
 2182             
 2183             FREQ,   IFNZRO DC08A <
 2184                     -67 >                   /55 TICKS PER SYSTEM TICK IF DC08A; INITIALIZED AT REFRESH TIME
 2185 22402 7766  IFZERO DC08A <-12>              /IN CASE OF PDP-8/A
 2186 22403 0322  CLKINA, CLKINI
 2187 22404 7455  TIMCK2, -INCLK2-1
 2188 22405 0400  TIMCK1, -INCLK1
 2189 22406 1130  C660,   TICMIN                  /TICKS PER MINUTE
 2190                     DECIMAL
 2191 22407 7750  DM24,   -24
 2192 22410 0030  D24,    24
 2193 22411 7704  DM60,   -60
 2194 22412 0074  D60,    60
 2195                     OCTAL
 2196             
 2197 22413 0000  TIMEIN, 0
 2198 22414 7300          CLA CLL
 2199 22415 4502          MESSAG
 2200 22416 3261          TIMESS                  /TIME:
 2201 22417 4504          GETIN
 2202 22420 7240          STA
 2203 22421 1064          TAD     INBUF
 2204 22422 3010          DCA     AXS1
 2205 22423 3066          DCA     CHAR
 2206 22424 4465          NUMBIN
 2207 22425 5214          JMP     TIMEIN+1
 2208 22426 1207          TAD     DM24
 2209 22427 7120          STL
 2210 22430 1210          TAD     D24
 2211 22431 7430          SZL                     /HOURS BETWEEN 0 AND 23?
 2212 22432 5214          JMP     TIMEIN+1        /NO
 2213 22433 3070          DCA     NUMHO+1
 2214 22434 3067          DCA     NUMHO
 2215 22435 1212          TAD     D60
 2216 22436 4271          JMS     DMUL
 2217 22437 3066          DCA     CHAR
 2218 22440 4465          NUMBIN
 2219 22441 5214          JMP     TIMEIN+1
 2220 22442 1211          TAD     DM60
 2221 22443 7120          STL
 2222 22444 1212          TAD     D60
 2223 22445 7430          SZL                     /MINUTES BETWEEN 0 AND 59?
 2224 22446 5214          JMP     TIMEIN+1        /NO
 2225 22447 1071          TAD     NUMHO+2
 2226 22450 3070          DCA     NUMHO+1
 2227 22451 3067          DCA     NUMHO
 2228 22452 1206          TAD     C660
 2229 22453 4271          JMS     DMUL
 2230 22454 7100          CLL
 2231 22455 6201          CDF
 2232 22456 1071          TAD     NUMHO+2
 2233 22457 1205          TAD     TIMCK1
 2234 22460 3451          DCA I   CLK1
 2235 22461 7004          RAL
 2236 22462 1070          TAD     NUMHO+1

      /EDUSYSTEM 50 MONITOR FOR MELROSE HIGH SCHOOL #495AB               Page 51


 2237 22463 1204          TAD     TIMCK2
 2238 22464 3450          DCA I   CLK2
 2239 22465 1202          TAD     FREQ
 2240 22466 3603          DCA I   CLKINA
 2241 22467 4060          CHDF
 2242 22470 5613          JMP I   TIMEIN
 2243             
 2244 22471 0000  DMUL,   0
 2245 22472 3341          DCA     MP2             /MULTIPLIER
 2246 22473 1070          TAD     NUMHO+1         /LOW ORDER MULTIPLICAND
 2247 22474 4312          JMS     MP4
 2248 22475 3071          DCA     NUMHO+2         /LOW ORDER
 2249 22476 1060          TAD     MP5
 2250 22477 3070          DCA     NUMHO+1         /HIGH ORDER
 2251 22500 1067          TAD     NUMHO           /HIGH ORDER MULTIPLICAND
 2252 22501 7450          SNA
 2253 22502 5671          JMP I   DMUL
 2254 22503 4312          JMS     MP4
 2255 22504 1070          TAD     NUMHO+1
 2256 22505 3070          DCA     NUMHO+1
 2257 22506 7004          RAL                     /GET CARRY
 2258 22507 1060          TAD     MP5
 2259 22510 3067          DCA     NUMHO
 2260 22511 5671          JMP I   DMUL
 2261             
 2262             
 2263 22512 0000  MP4,    0
 2264 22513 3340          DCA     MP1
 2265 22514 3060          DCA     MP5
 2266 22515 1343          TAD     M12
 2267 22516 3342          DCA     MP3
 2268 22517 7100          CLL
 2269 22520 1340          TAD     MP1
 2270 22521 7010          RAR
 2271 22522 3340          DCA     MP1
 2272 22523 1060          TAD     MP5
 2273 22524 7420          SNL
 2274 22525 5330          JMP     .+3
 2275 22526 7100          CLL
 2276 22527 1341          TAD     MP2
 2277 22530 7010          RAR
 2278 22531 3060          DCA     MP5
 2279 22532 2342          ISZ     MP3
 2280 22533 5320          JMP     MP4+6
 2281 22534 1340          TAD     MP1
 2282 22535 7010          RAR
 2283 22536 7100          CLL
 2284 22537 5712          JMP I   MP4
 2285             
 2286 22540 0000  MP1,    0
 2287 22541 0000  MP2,    0
 2288 22542 0000  MP3,    0
 2289       0060  MP5=    CHDFA
 2290 22543 7764  M12,    -14

      /EDUSYSTEM 50 MONITOR FOR MELROSE HIGH SCHOOL #495AB               Page 52


 2291             
 2292 22544 4340  CORMES, TEXT "# USER FIELDS - "
      22545 2523
      22546 0522
      22547 4006
      22550 1105
      22551 1404
      22552 2340
      22553 5540
      22554 0000
 2293             
 2294             
 2295       22555  INBUFA= .
 2296 22555 0000          ZBLOCK 20               /INPUT BUFFER FOR INIT INPUT
      22556 0000
      22557 0000
      22560 0000
      22561 0000
      22562 0000
      22563 0000
      22564 0000
      22565 0000
      22566 0000
      22567 0000
      22570 0000
      22571 0000
      22572 0000
      22573 0000
      22574 0000

      /EDUSYSTEM 50 MONITOR FOR MELROSE HIGH SCHOOL #495AB               Page 53


 2297             
 2298       2600  *INIP+1600
 2299             
 2300             /DECTAPE - READ OR WRITE ONE FIELD
 2301             /JMS TO DTRORW WITH DESIRED FIELD IN DTFLD, BEGINNING BLOCK MINUS
 2302             /ONE IN DTBLOK, DESIRED DRIVE IN CONTROLLER, AND DTFUNC
 2303             /0050 FOR A WRITE OR 0030 FOR A READ.
 2304             
 2305 22600 0000  DTRORW, 0
 2306 22601 7240          STA
 2307 22602 3327          DCA     DTCAS           /START CA AT -1
 2308 22603 1045          TAD     C7740
 2309 22604 3323          DCA     DTBLCT          /40 BLOCKS PER FIELD
 2310 22605 6761          DTRA
 2311 22606 0075          AND     C0200           /IS TAPE MOVING??
 2312 22607 7650          SNA CLA
 2313 22610 1364          TAD     C0600           /NO - START IT THE OTHER WAY
 2314 22611 6764          DTXA
 2315 22612 1330  DTSR1,  TAD     C7773
 2316 22613 3322          DCA     DTRY                    /TRY 5 TIMES UPON ERROR
 2317 22614 6774  DTSR2,  DTLB                    /BLOCK NUMBERS TO THIS FIELD
 2318 22615 3732          DCA I   C7755           /AT LOCATION 0
 2319 22616 1073          TAD     C0010           /START SEARCHING
 2320 22617 6764  DTSR3,  DTXA
 2321 22620 4337          JMS     DTWAIT          /WAIT
 2322 22621 6761          DTRA
 2323 22622 7006          RTL
 2324 22623 7006          RTL                     /DIRECTION BIT TO LINK
 2325 22624 7200          CLA
 2326 22625 1324          TAD     DTBLOK          /DESIRED BLOCK - 1
 2327 22626 7040          CMA                     /-DESIRED BLOCK
 2328 22627 7430          SZL                     /FUDGE IF GOING IN REVERSE
 2329 22630 1033          TAD     C0003
 2330 22631 1000          TAD     0               /REAL BLOCK - DESIRED BLOCK (+3?)
 2331 22632 7650          SNA CLA                 /WHAT DO WE DO NOW?
 2332 22633 7420          SNL
 2333 22634 5300          JMP     DTSR7           /KEEP GOING, MAYBE REVERSE DIRECTION
 2334 22635 1043          TAD     C7600           /WE'RE THERE, MAKE WC=-200
 2335 22636 3731          DCA I   C7754
 2336 22637 1327          TAD     DTCAS
 2337 22640 3732          DCA I   C7755           /SET UP CA
 2338 22641 1325          TAD     DTFLD
 2339 22642 6774          DTLB                    /SET UP FIELD FOR TRANSFER
 2340 22643 1326          TAD     DTFUNC
 2341 22644 6764          DTXA                    /SET UP FOR READ OR WRITE
 2342 22645 4337          JMS     DTWAIT          /WAIT
 2343 22646 1732          TAD I   C7755           /SAVE NEW CURRENT ADDRESS
 2344 22647 3327          DCA     DTCAS
 2345 22650 6761          DTRA                    /REMOVE ANY FUNCTION FROM CONTROLLER
 2346 22651 0334          AND     C0077
 2347 22652 6764          DTXA
 2348 22653 2324          ISZ     DTBLOK          /TIME FOR NEXT BLOCK
 2349 22654 2323          ISZ     DTBLCT          /ARE WE THROUGH?
 2350 22655 5212          JMP     DTSR1           /NO
 2351 22656 1324          TAD     DTBLOK          /YES -
 2352 22657 1333          TAD     CM2677          /END OF TAPE??
 2353 22660 7710          SPA CLA

      /EDUSYSTEM 50 MONITOR FOR MELROSE HIGH SCHOOL #495AB               Page 54


 2354 22661 5600          JMP I   DTRORW          /NO
 2355 22662 1156          TAD     C0400           /YES
 2356 22663 6764          DTXA                    /REWIND TAPE
 2357 22664 6761          DTRA
 2358 22665 1041          TAD     C1000           /GO TO NEXT DRIVE
 2359 22666 0335          AND     C7000
 2360 22667 3324          DCA     DTBLOK
 2361 22670 4510          CHEKCC                  /STALL
 2362 22671 6765          DTRA DTXA
 2363 22672 4510          CHEKCC                  /STALL
 2364 22673 1324          TAD     DTBLOK
 2365 22674 6764          DTXA                    /REMEMBER IT IN THE CONTROLLER
 2366 22675 3324          DCA     DTBLOK          /START AT BLOCK 1
 2367 22676 4510          CHEKCC                  /STALL
 2368 22677 5600          JMP I   DTRORW          /RETURN
 2369 22700 7420  DTSR7,  SNL                     /REVERSE DIRECTION?
 2370 22701 5217          JMP     DTSR3           /NO
 2371 22702 1156          TAD     C0400
 2372 22703 2322          ISZ     DTRY            /COUNT AN ERROR
 2373 22704 5217          JMP     DTSR3           /AND GO REVERSE DIRECTION
 2374 22705 1043          TAD     C7600           /AC=200
 2375 22706 6764          DTXA                    /STOP THE TAPE
 2376 22707 4502          MESSAG
 2377 22710 2712          TAPMIS
 2378 22711 5401          JMP I   SUPERA
 2379             
 2380 22712 3704  TAPMIS, TEXT "_DECTAPE ERROR"
      22713 0503
      22714 2401
      22715 2005
      22716 4005
      22717 2222
      22720 1722
      22721 0000
 2381             
 2382 22722 0000  DTRY,   0
 2383 22723 0000  DTBLCT, 0                       /COUNT OF BLOCKS TO R/W FOR ONE FIELD
 2384 22724 0000  DTBLOK, 0                       /CURRENT DESIRED BLOCK MINUS ONE
 2385 22725 0000  DTFLD,  0                       /DECTAPE FIELD IN BITS 6-8
 2386 22726 0000  DTFUNC, 0                       /DECTAPE FUNCTION, 30 FOR READ, 50 FOR WRITE
 2387       6766  DTLA=   6766                    /SHOULDN'T BE HERE, BUT PUT IT IN WHILE I REMEMBER
 2388 22727 0000  DTCAS,  0
 2389 22730 7773  C7773,  7773
 2390 22731 7754  C7754,  7754
 2391 22732 7755  C7755,  7755
 2392 22733 5101  CM2677, -2677
 2393 22734 0077  C0077,  0077
 2394 22735 7000  C7000,  7000
 2395 22736 0000  STATB,  0                       /FOR DIAGNOSTIC PURPOSES
 2396                                             /MOST RECENT DECTAPE STATUS B ON ERROR
 2397             
 2398             /DTWAIT - SUBROUTINE TO WAIT FOR DECTAPE COMPLETION FLAG
 2399             
 2400 22737 0000  DTWAIT, 0
 2401 22740 6771          DTSF
 2402 22741 5340          JMP     .-1             /WAIT FOR FLAG
 2403 22742 4510          CHEKCC

      /EDUSYSTEM 50 MONITOR FOR MELROSE HIGH SCHOOL #495AB               Page 55


 2404 22743 6772          DTRB
 2405 22744 7700          SMA CLA                 /ANY ERROR?
 2406 22745 5737          JMP I   DTWAIT          /NO
 2407 22746 6772          DTRB
 2408 22747 3336          DCA     STATB           /FOR DIAGNOSTIC PURPOSES
 2409 22750 1336          TAD     STATB
 2410 22751 0156          AND     C0400           /SELECT ERROR?
 2411 22752 7640          SZA CLA
 2412 22753 5362          JMP     DTWSEL          /YES
 2413 22754 6761  DTWGOR, DTRA
 2414 22755 0365          AND     C0377           /REMOVE FUNCTION FROM CONTROLLER
 2415 22756 6764          DTXA
 2416 22757 1364          TAD     C0600           /GO IN REVERSE
 2417 22760 6764          DTXA
 2418 22761 5214          JMP     DTSR2
 2419 22762 3000  DTWSEL, DCA     0
 2420 22763 6764          DTXA                    /SELECT ERROR!
 2421 22764 0600  C0600,  0600                    /WASTE TIME - SELECT ERROR RETURNS AFTER
 2422 22765 0377  C0377,  0377                    /WASTE TIME - 5 MICROSECONDS AFTER DTXA
 2423 22766 4510          CHEKCC
 2424 22767 6772          DTRB                    /IS IT STILL THERE?
 2425 22770 7710          SPA CLA
 2426 22771 5362          JMP     DTWSEL          /YES, TRY AGAIN
 2427 22772 2000          ISZ     0               /NO, WAIT A WHILE
 2428 22773 5363          JMP     DTWSEL+1
 2429 22774 5354          JMP     DTWGOR          /OK, IT SEEMS TO BE GONE
 2430             

      /EDUSYSTEM 50 MONITOR FOR MELROSE HIGH SCHOOL #495AB               Page 56


 2431             
 2432       3000  *INIP+2000
 2433             
 2434             /4K DISK READ OR WRITE
 2435             
 2436             
 2437 23000 4630  LOAD,   JMS I   RWB             /GO TO INITIALIZE CHDF, PRINT MESSAGE,
 2438 23001 0714          CRLF                    /AND DETERMINE READ OR WRITE
 2439             IFZERO RKSYS <
 2440                     TAD     C6603           /MAKE A DMAW OR A DMAR
 2441             
 2442                     DCA     RORW
 2443                     MESSAG
 2444                     FIELD1
 2445                     GETIN
 2446                     TAD I   INBUF
 2447                     AND     C0007
 2448                     DCA     FLDNUM
 2449                     MESSAG
 2450                     TRACK
 2451                     GETIN
 2452                     OCTIN
 2453                     CLL RTL
 2454                     RAL
 2455                     TAD     FLDNUM
 2456                     DCA     FLDNUM
 2457                     DISC
 2458             RORW,   0
 2459             FLDNUM, 0
 2460                     DISCHK                  /CHECK FOR DISK OK
 2461             C6603,  6603
 2462                     >
 2463             IFNZRO RKSYS <
 2464                     / AC HAS 0 FOR READ, 2 FOR WRITE (RETURN FROM RWB)
 2465 23002 7440          SZA
 2466 23003 1226          TAD C3776               /WRITE (2 + 37776 -> 4000)
 2467 23004 3224          DCA RORW
 2468 23005 4502          MESSAG
 2469 23006 3235          FIELD1
 2470 23007 4504          GETIN
 2471 23010 1464          TAD I   INBUF
 2472 23011 0036          AND C0007               /GET FIELD NUMBER
 2473 23012 7006          RTL                     /SHIFT TO BITS 6-8
 2474 23013 7004          RAL
 2475 23014 1224          TAD RORW                /MERGE WITH RK05 COMMAND
 2476 23015 3224          DCA RORW                /MODIFY RK05 CMD
 2477 23016 4502          MESSAG
 2478 23017 3245          TRACK
 2479 23020 4504          GETIN
 2480 23021 4503          OCTIN
 2481 23022 3225          DCA TRKNUM              /TRACK NUMBER TO DISC PARAMETER
 2482 23023 4500          DISC
 2483 23024 0000  RORW,   0
 2484 23025 0000  TRKNUM, 0
 2485 23026 3776  C3776,  3776
 2486                     >
 2487 23027 5200          JMP     LOAD

      /EDUSYSTEM 50 MONITOR FOR MELROSE HIGH SCHOOL #495AB               Page 57


 2488             
 2489 23030 1266  RWB,    RW

      /EDUSYSTEM 50 MONITOR FOR MELROSE HIGH SCHOOL #495AB               Page 58


 2490             
 2491             ASCI7,
 2492 23031 0000  CLEAR,  0
 2493 23032 7200          CLA
 2494 23033 4500          DISC                    /READ MONITOR II INTO FIELD 1
 2495             IFZERO RKSYS <
 2496                     6603
 2497                     TS8DEX+11
 2498                     DISCHK                  /CHECK FOR OK DISK COMPLETION
 2499                     >
 2500             IFNZRO RKSYS <
 2501 23034 0010          0010                    /READ, FIELD 1, DRIVE 0
 2502 23035 0004          0004                    /TRACK 4
 2503                     > 
 2504 23036 1241          TAD     CLR1
 2505 23037 4242          JMS     ZERO            /ZERO OUT FREE CORE
 2506 23040 5631          JMP I   CLEAR
 2507             
 2508 23041 3064  CLR1,   JOBTBL
 2509             
 2510             ASCI6,
 2511 23042 0000  ZERO,   0                       /CLEAR FIELD 1 FROM C(AC) TO 7777
 2512 23043 3252          DCA     CLR2            /BEGINNING ADDRESS
 2513 23044 6211          DATFLD
 2514 23045 3652          DCA I   CLR2
 2515 23046 2252          ISZ     CLR2
 2516 23047 5245          JMP     .-2
 2517 23050 4060          CHDF
 2518 23051 5642          JMP I   ZERO
 2519             ASCNT,
 2520 23052 0000  CLR2,   0

      /EDUSYSTEM 50 MONITOR FOR MELROSE HIGH SCHOOL #495AB               Page 59


 2521             
 2522             /ROUTINE TO MOVE XDDT INTO DATFLD
 2523             
 2524 23053 0000  LODDT,  0
 2525 23054 1300          TAD     KM4400
 2526 23055 3701          DCA I   FRENDA          /MAKE FRECORE STOP AT 4400
 2527 23056 7240          STA
 2528 23057 1277          TAD     K4400
 2529 23060 3010          DCA     AXS1            /POINTS TO ORIGINAL
 2530 23061 1010          TAD     AXS1
 2531 23062 3011          DCA     AXS2            /POINTS TO COPY
 2532 23063 4060  LODDT1, CHDF
 2533 23064 1410          TAD I   AXS1
 2534 23065 6211          DATFLD
 2535 23066 3411          DCA I   AXS2
 2536 23067 2302          ISZ     DDTSIZ          /ARE WE DONE YET?
 2537 23070 5263          JMP     LODDT1
 2538 23071 3676          DCA I   XOPA            /CHANGE ^C TO JUMP TO FIELD 0
 2539 23072 4060          CHDF
 2540 23073 4502          MESSAG
 2541 23074 1154          XTELL
 2542 23075 5653          JMP I   LODDT           /YES
 2543             
 2544 23076 5006  XOPA,   XOP
 2545 23077 4400  K4400,  4400
 2546 23100 3400  KM4400, -4400
 2547 23101 1400  FRENDA, FREND
 2548 23102 4601  DDTSIZ, 4400-7577               /THIS GETS DESTROYED, BUT WHAT THE HECK
 2549             
 2550 23103 1417  DDTMES, TEXT "LOAD EXEC DDT AT START-UP? "
      23104 0104
      23105 4005
      23106 3005
      23107 0340
      23110 0404
      23111 2440
      23112 0124
      23113 4023
      23114 2401
      23115 2224
      23116 5525
      23117 2077
      23120 4000

      /EDUSYSTEM 50 MONITOR FOR MELROSE HIGH SCHOOL #495AB               Page 60


 2551             
 2552             /ROUTINE TO CONVERT ASCII TO TSS/8 SIXBIT
 2553             
 2554 23121 0000  ASCSIX, 0
 2555 23122 7344          CLL STA RAL             /SET AC=-2
 2556 23123 3252          DCA     ASCNT
 2557 23124 1064          TAD     INBUF
 2558 23125 3242          DCA     ASCI6           /INPUT BUFFER
 2559 23126 1721          TAD I   ASCSIX
 2560 23127 3231          DCA     ASCI7           /POINTER TO OUTPUT VECTOR
 2561 23130 2321          ISZ     ASCSIX
 2562 23131 4350  ASCI1,  JMS     ASCGET          /GET ONE CHARACTER
 2563 23132 7106          CLL RTL
 2564 23133 7006          RTL
 2565 23134 7006          RTL                     /SHIFT TO HIGH ORDER
 2566 23135 3631          DCA I   ASCI7           /SAVE THE CHARACTER
 2567 23136 4060          CHDF
 2568 23137 4350          JMS     ASCGET          /GO GET ANOTHER CHARACTER
 2569 23140 1631          TAD I   ASCI7           /PACK IT IN WITH THE LAST ONE
 2570 23141 3631          DCA I   ASCI7           /AND SAVE IT
 2571 23142 2231          ISZ     ASCI7
 2572 23143 4060          CHDF
 2573 23144 2252          ISZ     ASCNT           /DONE?
 2574 23145 5331          JMP     ASCI1           /NO
 2575 23146 5721          JMP I   ASCSIX          /YES, EXIT
 2576             
 2577 23147 7540  ASC240, -240
 2578             
 2579 23150 0000  ASCGET, 0                       /GET A PASSWORD CHARACTER, EXIT UPON CARRIAGE RETURN
 2580 23151 1642          TAD I   ASCI6           /GET NEXT CHARACTER
 2581 23152 1362          TAD     ASCCR
 2582 23153 7650          SNA CLA                 /IS IT CR?
 2583 23154 5721          JMP I   ASCSIX          /YES, RETURN
 2584 23155 1642          TAD I   ASCI6
 2585 23156 2242          ISZ     ASCI6
 2586 23157 1347          TAD     ASC240          /PASSWORDS ARE STORED IN EXCESS 240 CODE
 2587 23160 6211          DATFLD
 2588 23161 5750          JMP I   ASCGET
 2589             
 2590 23162 7563  ASCCR,  -215
 2591 23163 0516  CSQ,    TEXT "ENABLE ^S FEATURE? "
      23164 0102
      23165 1405
      23166 4036
      23167 2340
      23170 0605
      23171 0124
      23172 2522
      23173 0577
      23174 4000

      /EDUSYSTEM 50 MONITOR FOR MELROSE HIGH SCHOOL #495AB               Page 61


 2592             
 2593       3200  *INIP+2200
 2594             
 2595             /USES INIT'S BINARY LOADER TO LOAD INTO FIELD 1
 2596 23200 4507          ZERO1                   /ZERO FIELD 1
 2597 23201 6211          DATFLD
 2598 23202 4617  Y1,     JMS I   BINLD           /GO LOAD BINARY TAPE
 2599 23203 7410          SKP                     /FIELD SETTING ENCOUNTERED
 2600 23204 5401          JMP I   SUPERA          /END OF TAPE
 2601 23205 3300          DCA     DISC0           /SAVE IT
 2602 23206 6214          RDF
 2603 23207 7041          CIA
 2604 23210 1300          TAD     DISC0           /IS IT THE CURRENT FIELD ANYWAY?
 2605 23211 7650          SNA CLA
 2606 23212 5620          JMP I   BINT3B          /YES - SO IT'S OK
 2607 23213 1300          TAD     DISC0           /NO - LET HIM/HER KNOW ABOUT IT
 2608 23214 7402          HLT
 2609 23215 7200          CLA                     /IGNORE FIELD SETTING
 2610 23216 5620          JMP I   BINT3B
 2611             
 2612 23217 7600  BINLD,  BINTAP
 2613 23220 7732  BINT3B, BINT3
 2614             
 2615 23221 4623  Y,      JMS I   STFLDA
 2616 23222 5202          JMP     Y1
 2617             
 2618 23223 4241  STFLDA, STFLD
 2619             
 2620 23224 2205  RDORWT, TEXT "READ OR WRITE - "
      23225 0104
      23226 4017
      23227 2240
      23230 2722
      23231 1124
      23232 0540
      23233 5540
      23234 0000
 2621 23235 0611  FIELD1, TEXT "FIELD NUMBER - "
      23236 0514
      23237 0440
      23240 1625
      23241 1502
      23242 0522
      23243 4055
      23244 4000
 2622 23245 2422  TRACK,  TEXT "TRACK NUMBER - "
      23246 0103
      23247 1340
      23250 1625
      23251 1502
      23252 0522
      23253 4055
      23254 4000
 2623 23255 3724  TAPMES, TEXT "_TAPE "
      23256 0120
      23257 0540
      23260 0000

      /EDUSYSTEM 50 MONITOR FOR MELROSE HIGH SCHOOL #495AB               Page 62


 2624 23261 1022  TIMESS, TEXT "HR:MIN - "
      23262 7215
      23263 1116
      23264 4055
      23265 4000
 2625 23266 4340  NUMBLK, TEXT "# - "
      23267 5540
      23270 0000
 2626 23271 3105  YN,     TEXT "YES OR NO... "
      23272 2340
      23273 1722
      23274 4016
      23275 1756
      23276 5656
      23277 4000

      /EDUSYSTEM 50 MONITOR FOR MELROSE HIGH SCHOOL #495AB               Page 63


 2627             
 2628             /DISK READ OR WRITE
 2629             /CALL   DISC
 2630             /       FUNCTION
 2631             /       DEAL ARGUMENTS (DISC EXTENSION IN BITS 1-8; MEMORY FIELD IN BITS 9-11)
 2632             /       DISCHK
 2633             /       RETURN HERE WHEN OK
 2634             
 2635       4500  DISC=   JMS I DISCA
 2636             
 2637             IFZERO RKSYS <
 2638             DISCHK= JMS I DISCHA >
 2639             
 2640             IFZERO RKSYS <
 2641             DISC0,  0
 2642                     RDF
 2643                     TAD     C6201
 2644                     DCA     DISC2
 2645                     CHDF
 2646                     TAD I   DISC0
 2647                     DCA     DISROW
 2648                     ISZ     DISC0
 2649                     TAD I   DISC0
 2650                     DCA     DEALSV          /SAVE THE DEAL ARGUMENTS
 2651                     TAD     DEALSV
 2652             IFZERO RF08-40 <        ISZ DISC0
 2653                     CLL RTL
 2654                     RAL
 2655                     DEAL
 2656                     CLA CLL>
 2657             IFZERO RF08 <   RTL
 2658                     RAL
 2659                     AND     C0070
 2660                     DIML
 2661                     TAD I   DISC0
 2662                     CLL RTR
 2663                     ISZ     DISC0
 2664                     RAR
 2665                     DXAL>
 2666                     CDF
 2667                     DCA I   C7750
 2668                     STA
 2669                     DCA I   C7751
 2670             DISROW, 0
 2671                     JMP I   DISC0
 2672             
 2673             C0070,  70
 2674             C7750,  7750
 2675             C7751,  7751 >
 2676             
 2677             IFNZRO RKSYS <
 2678             /RK05 READ OR WRITE - INCLUDES RETRIES AND ERROR CHECKING.
 2679             /CALL   DISC
 2680             /       COMMAND + EMA (AS IN RK8E COMMAND REG)
 2681             /       TRACK #
 2682             /       RETURN HERE WHEN OK
 2683 23300 0000  DISC0,  0

      /EDUSYSTEM 50 MONITOR FOR MELROSE HIGH SCHOOL #495AB               Page 64


 2684 23301 6214          RDF
 2685 23302 1074          TAD     C6201
 2686 23303 3352          DCA     DISC2           / BUILD CDF INSTRUCTION TO RESTORE DF LATER
 2687 23304 4060          CHDF
 2688 23305 1700          TAD I   DISC0   
 2689 23306 3357          DCA     DISCMD          / STORE COMMAND/EMA
 2690 23307 2300          ISZ     DISC0
 2691 23310 1700          TAD I   DISC0
 2692 23311 7106          CLL RTL
 2693 23312 7006          RTL
 2694 23313 3360          DCA     DISTRK          / STORE TRACK ADDRESS
 2695 23314 3361          DCA     DISADR          / ZERO ADDRESS COUNTER  
 2696 23315 7346  DISCLP, CLL STA RTL
 2697 23316 3362          DCA     RFTRY           / TRY EACH SECTOR UP TO 3 TIMES
 2698 23317 7201  DISRTR, CLA IAC
 2699 23320 6742          DCLR                    / CLEAR RK8E FOR NEW TRANSFER
 2700 23321 1357          TAD     DISCMD
 2701 23322 6746          DLDC                    / LOAD COMMAND
 2702 23323 1361          TAD     DISADR
 2703 23324 6744          DLCA                    / LOAD CORE ADDRESS 
 2704 23325 1360          TAD     DISTRK          / LOAD TRACK ADDRESS
 2705 23326 6743          DLAG                    / AND GO
 2706 23327 6741  DISCWT, DSKP                    / SKIP ON TRANSFER COMPLETE OR ERROR
 2707 23330 5327          JMP     DISCWT
 2708 23331 6745          DRST                    / GET STATUS
 2709 23332 7104          CLL RAL                 / IGNORE COMPLETE FLAG, CHECK FOR ERROR BITS
 2710 23333 7450          SNA
 2711 23334 5340          JMP     DISCNX          / READ OK - GO TO NEXT SECTOR
 2712 23335 2362          ISZ     RFTRY           / ERROR: INCREMENT COUNTER AND RETRY
 2713 23336 5317          JMP     DISRTR
 2714 23337 5363          JMP     DISERR          / OUT OF RETRIES, SORRY.
 2715             
 2716 23340 7201  DISCNX, CLA IAC
 2717 23341 1360          TAD     DISTRK          / NEXT SECTOR
 2718 23342 3360          DCA     DISTRK
 2719 23343 1361          TAD     DISADR          / NEXT ADDRESS
 2720 23344 1156          TAD     C0400
 2721 23345 3361          DCA     DISADR
 2722 23346 1360          TAD     DISTRK
 2723 23347 0356          AND     C0017           / READ ENTIRE TRACK?
 2724 23350 7440          SZA
 2725 23351 5315          JMP     DISCLP          / NOPE, GO DO IT.       
 2726             
 2727 23352 0000  DISC2,  .-.                     / CDF -- RESTORE DATA FIELD
 2728 23353 2300          ISZ     DISC0           / POINT TO RETURN ADDRESS
 2729 23354 6742          DCLR                    / CLEAR RK8E
 2730 23355 5700          JMP I   DISC0           / DONE, SUCCESS  - AC SHOULD BE ZERO HERE, CALLERS DEPEND ON IT 
 2731             
 2732 23356 0017  C0017,  17
 2733 23357 0000  DISCMD, 0
 2734 23360 0000  DISTRK, 0
 2735 23361 0000  DISADR, 0
 2736             >
 2737             
 2738             
 2739             /SUBROUTINE TO WAIT FOR DISK COMPLETION, CHECK FOR ERRORS, AND
 2740             /IF THERE ARE ANY ERRORS, RETRY THE OPERATION.

      /EDUSYSTEM 50 MONITOR FOR MELROSE HIGH SCHOOL #495AB               Page 65


 2741             IFZERO RKSYS <
 2742             DISCH0, 0
 2743                     CLL STA RTL
 2744                     DCA     RFTRY           /TRY 3 TIMES
 2745             IFZERO RF08 <DFSE DFSC>
 2746             IFNZRO RF08 <DFSC>
 2747                     JMP     .-1             /WAIT FOR THE DISK TO FINISH
 2748                     DFSE                    /ERROR?
 2749             IFZERO RF08-40 <SKP>            /DF32 SKIPS BACKWARDS
 2750                     JMP     DISC2           /NO
 2751                     DIMA
 2752                     AND     DSKFLG          /CHECK WLS, DRL, PER
 2753                     CDF
 2754                     SNA
 2755                     TAD I   C7750           /MAYBE NXD - IS WC=0?
 2756             DISC2,  .-.                     /CDF -- RESTORE DATA FIELD
 2757                     SNA                     /OK?
 2758                     JMP I   DISCH0          /I GUESS SO
 2759                     ISZ     RFTRY           /3 TRIES YET?
 2760                     CLA SKP
 2761                     JMP     DISERR          /DISK WRITE LOCKED, PARITY ERROR, OR DRL
 2762                     TAD     DISROW          /GET OLD DMAR OR DMAW
 2763                     DCA     .+2
 2764                     DISC
 2765                     0
 2766             DEALSV, 0                       /DEAL ARGUMENTS SAVED BY LAST DISC CALL
 2767                     JMP     DISCH0+3 
 2768             
 2769             DSKFLG, IFZERO RF08 <1005>
 2770                     IFZERO RF08-40 <0007> >
 2771             
 2772 23362 0000  RFTRY,  0                       /RETRY COUNT FOR DISK ERRORS
 2773             
 2774 23363 4502  DISERR, MESSAG
 2775 23364 3366          DISKER
 2776 23365 5401          JMP I   SUPERA
 2777 23366 3704  DISKER, TEXT "_DISK ERROR"
      23367 1123
      23370 1340
      23371 0522
      23372 2217
      23373 2200

      /EDUSYSTEM 50 MONITOR FOR MELROSE HIGH SCHOOL #495AB               Page 66


 2778             
 2779       3400  *INIP+2400
 2780             
 2781             /DISC DUMP ON DTA1
 2782             /DECTAPE BLOCK 40N+1=DISC TRACK N
 2783             
 2784 23400 4735  DSKDMP, JMS I   RWA             /GO TO INITIALIZE CHDF, PRINT MESSAGE,
 2785 23401 3255          TAPMES                  /AND DETERMINE READ OR WRITE
 2786 23402 3324          DCA     DTA
 2787 23403 4502          MESSAG
 2788 23404 3266          NUMBLK
 2789 23405 4504          GETIN
 2790 23406 4503          OCTIN
 2791 23407 7041          CIA
 2792 23410 7450          SNA
 2793 23411 1325  DSKSUP, TAD     DSKSZ
 2794 23412 3326          DCA     LDFCNT          /SAVE DISK TRACK COUNT
 2795 23413 3261          DCA     RFFUNC          /WELL, FOLKS, THE FOLLOWING ROUTINE
 2796 23414 4060          CHDF                    /ONLY WORKS IN FIELD 0, SO HERE
 2797 23415 1661          TAD I   RFFUNC          /WE GO, MOVING EVERYTHING DOWN TO
 2798 23416 6201          CDF                     /FIELD 0 SO THAT IT WILL BE HAPPY
 2799 23417 3661          DCA I   RFFUNC
 2800 23420 2261          ISZ     RFFUNC
 2801 23421 5214          JMP     .-5
 2802 23422 6203          CIF CDF                 /AND DOWN TO FIELD 0!
 2803 23423 5224          JMP     .+1
 2804 23424 1222          TAD     .-2
 2805 23425 3061          DCA     INIF            /SET UP CHDF FOR FIELD 0
 2806 23426 1324          TAD     DTA             /IS IT LOAD OR DUMP??
 2807 23427 7100          CLL
 2808 23430 7650          SNA CLA
 2809 23431 7120          STL
 2810 23432 7420          SNL                     /SKIP IF READ
 2811 23433 1333          TAD     C0020
 2812 23434 1334          TAD     C0030
 2813 23435 3727          DCA I   DTFUNA          /SAVE FUNCTION FOR DECTAPE
 2814 23436 1316          TAD     RFDMAR
 2815 23437 7430          SZL                     /SKIP IF DISK READ
 2816 23440 1032          TAD     C0002           /MAKE IT DMAW
 2817 23441 3261          DCA     RFFUNC          /SAVE DMAR OR DMAW
 2818 23442 1326          TAD     LDFCNT
 2819 23443 7004          RAL
 2820 23444 3326          DCA     LDFCNT          /FUDGE LDFCNT SO THAT IT ISZES TO 0 AT THE RIGHT TIME
 2821 23445 3730          DCA I   DTBLKA          /START AT DECTAPE BLOCK 1
 2822 23446 1041          TAD     C1000
 2823 23447 6766          DTLA                    /START WITH DECTAPE DRIVE 1
 2824 23450 7001          IAC
 2825 23451 3262          DCA     RFTRAK          /START WITH RF08/DF32 TRACK 0 FIELD 1
 2826 23452 1073          TAD     C0010
 2827 23453 3731          DCA I   DTFLDA          /START WITH DECTAPE FIELD 1
 2828 23454 1324          TAD     DTA
 2829 23455 7640          SZA CLA                 /LOAD OR DUMP?
 2830 23456 5315          JMP     DMPINI          /MUST BE DUMP
 2831 23457 4732          JMS I   DTRWA           /READ FIRST TRACK FROM DECTAPE
 2832 23460 4500          DISC                    /READ OR WRITE - START OPERATION ONLY
 2833 23461 0000  RFFUNC, 0                       /DMAR OR DMAW
 2834 23462 0000  RFTRAK, 0                       /BITS 1-8=TRACK, 9-11=FIELD

      /EDUSYSTEM 50 MONITOR FOR MELROSE HIGH SCHOOL #495AB               Page 67


 2835 23463 2326          ISZ     LDFCNT          /DONE LOADING?
 2836 23464 5266          JMP     LD2             /NO
 2837             IFZERO RKSYS <
 2838                     DISCHK                  /YES - LAST WRITE OK??
 2839                     >
 2840 23465 5300          JMP     LDSTOP
 2841 23466 1262  LD2,    TAD     RFTRAK          /WHAT FIELD DOES DECTAPE GO TO NOW?
 2842 23467 7012          RTR
 2843 23470 7710          SPA CLA
 2844 23471 1073          TAD     C0010
 2845 23472 1073          TAD     C0010
 2846 23473 3731          DCA I   DTFLDA
 2847 23474 4732          JMS I   DTRWA           /READ/WRITE DECTAPE
 2848 23475 2326          ISZ     LDFCNT          /DONE DUMPING???
 2849 23476 5304          JMP     DMPJMP          /NO
 2850 23477 6601          DCMA                    /MAKE SURE THE DISK IS STOPPED
 2851 23500 1156  LDSTOP, TAD     C0400           /YES - REWIND LAST DECTAPE
 2852 23501 6764          DTXA
 2853 23502 5703          JMP I   .+1
 2854 23503 1321          RFBOOT                  /NOW GO BOOT WHATEVER IS ON RF08/DF32
 2855             
 2856             IFZERO RKSYS <
 2857             DMPJMP, DISCHK                  /DISK OK??
 2858                     >
 2859             IFNZRO RKSYS <
 2860 23504 7000  DMPJMP, NOP
 2861                     >
 2862 23505 1262          TAD     RFTRAK
 2863 23506 7010          RAR
 2864 23507 7630          SZL CLA
 2865 23510 1032          TAD     C0002
 2866 23511 1036          TAD     C0007
 2867 23512 1262          TAD     RFTRAK
 2868 23513 3262          DCA     RFTRAK
 2869 23514 5260          JMP     RFFUNC-1
 2870 23515 4500  DMPINI, DISC
 2871 23516 6603  RFDMAR, DMAR
 2872 23517 0001          1
 2873 23520 5304          JMP     DMPJMP
 2874             
 2875 23521 7240  SUPDMP, STA
 2876 23522 3324  SUPLOD, DCA     DTA             /SET DTA NON-0 FOR LOAD, 0 FOR DUMP
 2877 23523 5211          JMP     DSKSUP          /AND GO LOAD OR DUMP
 2878             
 2879 23524 0000  DTA,    0
 2880 23525 7400  DSKSZ,  -DSKSIZ
 2881 23526 0000  LDFCNT, 0
 2882 23527 2726  DTFUNA, DTFUNC
 2883 23530 2724  DTBLKA, DTBLOK
 2884 23531 2725  DTFLDA, DTFLD
 2885 23532 2600  DTRWA,  DTRORW
 2886 23533 0020  C0020,  0020
 2887 23534 0030  C0030,  0030
 2888 23535 1266  RWA,    RW
 2889 23536 3724  TAPERR, TEXT "_TAPE READ ERROR"
      23537 0120
      23540 0540

      /EDUSYSTEM 50 MONITOR FOR MELROSE HIGH SCHOOL #495AB               Page 68


      23541 2205
      23542 0104
      23543 4005
      23544 2222
      23545 1722
      23546 0000
 2890 23547 3727  HUH,    TEXT "_WHAT?_PLEASE TRY AGAIN_"
      23550 1001
      23551 2477
      23552 3720
      23553 1405
      23554 0123
      23555 0540
      23556 2422
      23557 3140
      23560 0107
      23561 0111
      23562 1637
      23563 0000
 2891       3552  HUH2=   HUH+3

      /EDUSYSTEM 50 MONITOR FOR MELROSE HIGH SCHOOL #495AB               Page 69


 2892             
 2893             /FILE PHANTOM AND DISK REFRESHER
 2894             
 2895             /WRITE NEW MFD ON DISC DIRECTLY ABOVE THE SWAPPING AREA
 2896             PAGE
 2897 23600 0000  FIPR4,  0
 2898 23601 3121  FIPASC, ASCSIX
 2899 23602 4050  MFD1,   MFDT-1
 2900             
 2901 23603 4507  FIPREF, ZERO1                   /ZERO FIELD 1
 2902 23604 4502          MESSAG                  /"SYSTEM"
 2903 23605 0717          SYSTEM
 2904 23606 4502          MESSAG                  /"PASSWORD"
 2905 23607 0734          PASWRD
 2906 23610 4504          GETIN
 2907 23611 4601          JMS I   FIPASC          /CONVERT PASSWORD TO SIXBIT
 2908 23612 0011          0011                    /GOOES AT WORD 11, 12 OF MFD
 2909 23613 4502          MESSAG                  /"LIBRARY"
 2910 23614 0723          LIBARY
 2911 23615 4502          MESSAG                  /"PASSWORD"
 2912 23616 0734          PASWRD
 2913 23617 4504          GETIN
 2914 23620 4601          JMS I   FIPASC          /CONVERT PASSWORD TO SIXBIT
 2915 23621 0041          0041                    /AND PUT IT AT WORDS 41,42 OF MFD
 2916 23622 4502          MESSAG                  /"OPERATOR"
 2917 23623 0727          OPRAT
 2918 23624 4502          MESSAG                  /"PASSWORD"
 2919 23625 0734          PASWRD
 2920 23626 4504          GETIN
 2921 23627 4601          JMS I   FIPASC          /CONVERT PASSWORD TO SIXBIT
 2922 23630 0061          0061                    /AND PUT IT AT WORDS 61,62 OF MFD
 2923 23631 1202          TAD     MFD1            /INITIALIZE POINTER
 2924 23632 3010          DCA     AXS1
 2925 23633 1410  FIPR2,  TAD I   AXS1            /GET ADDRESS OF DATA TO BE STORED IN MFD
 2926 23634 7450          SNA                     /ARE WE THROUGH?
 2927 23635 5244          JMP     FIPR3           /YES
 2928 23636 3200          DCA     FIPR4           /SAVE IT
 2929 23637 1410          TAD I   AXS1            /GET DATA TO STORE
 2930 23640 6211          DATFLD
 2931 23641 3600          DCA I   FIPR4           /STORE IT IN THE MFD
 2932 23642 4060          CHDF
 2933 23643 5233          JMP     FIPR2           /GO FOR MORE
 2934             
 2935 23644 1111  FIPR3,  TAD     SWBASE
 2936 23645 1336          TAD     JBMXP           /"JOBMAX"
 2937             IFZERO RKSYS <
 2938                     CLL RTL
 2939                     STL RAL                 /MAKE IT FIELD 1
 2940                     DCA     .+3
 2941                     DISC
 2942                     DMAW                    /WRITE OUT THE MFD
 2943             FIPR4,  .-.
 2944                     DISCHK >
 2945             IFNZRO RKSYS <
 2946 23646 3251          DCA     .+3             /TRACK NUMBER
 2947 23647 4500          DISC
 2948 23650 4010          4010                    /WRITE, FIELD 1, DRIVE 0

      /EDUSYSTEM 50 MONITOR FOR MELROSE HIGH SCHOOL #495AB               Page 70


 2949 23651 0000          .-.                     /TRACK
 2950                     >
 2951             

      /EDUSYSTEM 50 MONITOR FOR MELROSE HIGH SCHOOL #495AB               Page 71


 2952             
 2953             /INITIALIZE STORAGE ALLOCATION TABLE "SAT"
 2954             /THE SAT TABLE RESIDES IN FIP AT 7777 AND EXTENDS
 2955             /DOWN THROUGH 7777-(SATSIZ-1). EACH BIT POSITION REPRESENTS 1 SEGMENT
 2956             /OF FILE STORAGE.
 2957             /SEGMENT 0 IS BIT 0 OF 7252,
 2958             /SEGMENT 1 IS BIT 1 OF 7252, ETC.   7252=7777-(SATSIZ+2).
 2959             /LOCATION SATCNT=7777-(SATSIZ-1)+1 CONTAINS THE COUNT OF AVAILABLE
 2960             /SEGMENTS.  A SEGMENT IS AVAILABLE IF ITS SAT BIT HAS THE
 2961             /VALUE 0.
 2962             
 2963 23652 4742          JMS I   FIPRFD          /FIP TO FIELD 1
 2964 23653 1343          TAD     CJTABL
 2965 23654 4507          ZERO1                   /CLEAR ALL FIP TABLES AND RETRIEVAL INFORMATION
 2966 23655 1335          TAD     SWDEXP
 2967 23656 1063          TAD     CJOBMX
 2968 23657 1340          TAD     DSKSZP          /"DSKSIZ"
 2969 23660 7106          CLL RTL
 2970 23661 7006          RTL
 2971 23662 1112          TAD     C7777           /CAN'T USE LAST SEGMENT ON DF32
 2972 23663 3341          DCA     STORE0          /NUMBER OF DISK SEGMENTS
 2973 23664 7240          CLA CMA
 2974 23665 6211          DATFLD
 2975 23666 3744          DCA I   SATBOT          /"-255"
 2976 23667 7346          CLL STA RTL             /SUBTRACT THREE SEGMENTS (FOR 1,2,3 UFD'S)
 2977 23670 1341          TAD     STORE0          /SET SATCNT TO # DISC SEGMENTS-2
 2978 23671 3745          DCA I   SATCNT          /"-254"
 2979 23672 1333          TAD     K7000           /MARK SEGMENTS 1,2,3 FOR MFD, UFD USAGE
 2980 23673 3732          DCA I   SATTBL
 2981 23674 1341          TAD     STORE0          /MORE THAN 4000 SEGMENTS.
 2982 23675 7500          SMA
 2983 23676 5304          JMP     .+6             /NO OK
 2984 23677 1347          TAD     CM4004          /SUBTRACT 4004
 2985 23700 3341          DCA     STORE0
 2986 23701 1346          TAD     C0253           /253 WORDS=4004 SEGS
 2987 23702 3334          DCA     COUNT
 2988 23703 1341          TAD     STORE0
 2989 23704 1337          TAD     C7764           /-14
 2990 23705 2334          ISZ     COUNT           /COUNT # ZERO WORDS IN SAT
 2991 23706 7500          SMA
 2992 23707 5304          JMP     .-3
 2993 23710 3341          DCA     STORE0
 2994 23711 7240          STA
 2995 23712 1334          TAD     COUNT
 2996 23713 1332          TAD     SATTBL
 2997 23714 3334          DCA     COUNT
 2998 23715 7124          STL RAL
 2999 23716 2341          ISZ     STORE0
 3000 23717 5315          JMP     .-2
 3001 23720 3734          DCA I   COUNT           /MARK END OF FILE STORAGE AS ALLOCATED
 3002 23721 5324          JMP     FIPRF5
 3003 23722 7240  FIPRF4, CLA CMA
 3004 23723 3734          DCA I   COUNT
 3005 23724 2334  FIPRF5, ISZ     COUNT
 3006 23725 5322          JMP     FIPRF4
 3007 23726 4500          DISC
 3008             IFZERO RKSYS <

      /EDUSYSTEM 50 MONITOR FOR MELROSE HIGH SCHOOL #495AB               Page 72


 3009                     DMAW
 3010                     0011                    /FIP IS TRACK 1, FIELD 1
 3011                     DISCHK                  /MAKE SURE THE DISK IS OK
 3012                     >
 3013             IFNZRO RKSYS <
 3014 23727 4010          4010                    /WRITE, FIELD 1, DRIVE 0
 3015 23730 0001          0001                    /TRACK 1
 3016                     >
 3017 23731 5401          JMP I   SUPERA
 3018 23732 7252  SATTBL, -SATSIZ+2
 3019 23733 7000  K7000,  7000
 3020             
 3021 23734 0000  COUNT,  0
 3022 23735 7773  SWDEXP, -SWDEX
 3023 23736 0024  JBMXP,  JOBMAX
 3024 23737 7764  C7764,  -14
 3025 23740 0400  DSKSZP, DSKSIZ
 3026 23741 0000  STORE0, 0
 3027 23742 4035  FIPRFD, FIPRD
 3028 23743 6000  CJTABL, JTABLE
 3029 23744 7250  SATBOT, -SATSIZ
 3030 23745 7251  SATCNT, -SATSIZ+1
 3031 23746 0253  C0253,  253
 3032 23747 3774  CM4004, -4004
 3033 23750 3727  FIPREM, TEXT "_WRITE ZERO SYSTEM DIRECTORY? "
      23751 2211
      23752 2405
      23753 4032
      23754 0522
      23755 1740
      23756 2331
      23757 2324
      23760 0515
      23761 4004
      23762 1122
      23763 0503
      23764 2417
      23765 2231
      23766 7740
      23767 0000

      /EDUSYSTEM 50 MONITOR FOR MELROSE HIGH SCHOOL #495AB               Page 73


 3034             
 3035       4000  *INIP+3000
 3036 24000 5601          JMP I   .+1
 3037 24001 2000          INBOOT
 3038             
 3039             
 3040             /MFD SEGMENT #S TO INBUF
 3041             
 3042 24002 0000  FRD0,   0
 3043 24003 1111          TAD     SWBASE
 3044 24004 1232          TAD     JBMAX
 3045             IFZERO RKSYS <
 3046                     CLL RTL
 3047                     STL RAL                 /MOVE TRACK THREE BITS, SET BIT 11 (FIELD 1)
 3048                     DCA     FRD1
 3049                     DISC
 3050                     DMAR
 3051             FRD1,   0
 3052                     DISCHK                  /MAKE SURE THE DISK IS OK
 3053                     >
 3054             IFNZRO RKSYS <
 3055 24005 3210          DCA     FRD1            /SET TRACK #
 3056 24006 4500          DISC
 3057 24007 0010          0010                    /READ, FIELD 1, DRIVE 0
 3058 24010 0000  FRD1,   0                       /TRACK #
 3059                     >
 3060 24011 1234          TAD     K0020
 3061 24012 3010          DCA     AXS1
 3062 24013 1064          TAD     INBUF
 3063 24014 3011          DCA     AXS2
 3064 24015 1365          TAD     K7771
 3065 24016 3235          DCA     Z1
 3066 24017 6211  FRD2,   DATFLD
 3067 24020 1410          TAD I   AXS1
 3068 24021 4060          CHDF
 3069 24022 3411          DCA I   AXS2
 3070 24023 2235          ISZ     Z1
 3071 24024 5217          JMP     FRD2
 3072 24025 6211          DATFLD
 3073 24026 1633          TAD I   FGRACE          /FETCH SIZE OF "GRACE SPACE"
 3074 24027 4060          CHDF
 3075 24030 3411          DCA I   AXS2
 3076 24031 5602          JMP I   FRD0
 3077             
 3078 24032 0024  JBMAX,  JOBMAX
 3079 24033 0014  FGRACE, 0014
 3080 24034 0020  K0020,  0020
 3081             
 3082             Z1,
 3083 24035 0000  FIPRD,  0
 3084 24036 4500          DISC
 3085             IFZERO  RKSYS <
 3086                     DMAR
 3087                     0011                    /FIP IS TRACK 1, READ INTO FIELD 1
 3088                     DISCHK                  /MAKE SURE THE DISK IS OK >
 3089             IFNZRO  RKSYS <
 3090 24037 0010          0010                    /READ, FIELD 1, DRIVE 0

      /EDUSYSTEM 50 MONITOR FOR MELROSE HIGH SCHOOL #495AB               Page 74


 3091 24040 0001          0001                    /TRACK 1
 3092                     >
 3093 24041 5635          JMP I   FIPRD
 3094             
 3095 24042 4650  Z0,     JMS I   STFLDB          /SET DATA FIELD TYPED
 3096 24043 3235          DCA     Z1
 3097 24044 3635          DCA I   Z1              /ZERO OUT A FIELD
 3098 24045 2235          ISZ     Z1
 3099 24046 5244          JMP     .-2
 3100 24047 5401          JMP I   SUPERA
 3101             
 3102 24050 4241  STFLDB, STFLD

      /EDUSYSTEM 50 MONITOR FOR MELROSE HIGH SCHOOL #495AB               Page 75


 3103             
 3104             /TABLE USED TO CONSTRUCT VIRGIN MFD
 3105             /INCLUDES ENTRIES FOR ACCOUNTS 1, 2, 3
 3106             /EACH PAIR OF NUMBERS INCLUDES FIRST THE MFD ADDRESS, THEN ITS CONTENTS
 3107             
 3108 24051 0003  MFDT,   3;10                    /DUMMY POINTER
      24052 0010
 3109 24053 0010          10;1                    /ACCOUNT NUMBER 1
      24054 0001
 3110 24055 0013          13;40                   /NEXT ACCOUNT STARTS AT 40; LINK TO IT
      24056 0040
 3111 24057 0014          14;12                   /DEFAULT "GRACE SPACE" OF 10 SEGMENTS PAST QUOTA
      24060 0012
 3112 24061 0017          17;20                   /SEGMENT LIST IS AT 20
      24062 0020
 3113 24063 0021          21;1                    /MFD STARTS WITH SEGMENT 1 ONLY
      24064 0001
 3114 24065 0030          30                      /AN EXTRA BLOCK IS USED HERE. THE REASON IS SO THAT THE
 3115 24066 7777          7777                    /LAST ACCOUNT IN A SEGMENT WON'T HAVE ITS RETRIEVAL
 3116                                             /BLOCK IN THE NEXT SEGMENT.
 3117 24067 0040          40;2                    /ACCOUNT 2
      24070 0002
 3118 24071 0043          43;60                   /LINK TO NEXT ACCOUNT AT 60
      24072 0060
 3119 24073 0044          44;7777                 /NO LIMIT ON DISK SEGMENTS
      24074 7777
 3120 24075 0047          47;50                   /SEGMENT LIST IS AT 50
      24076 0050
 3121 24077 0051          51;2                    /ACCOUNT 2 UFD STARTS WITH ONLY SEGMENT 2
      24100 0002
 3122 24101 0060          60;3                    /ACCOUNT 3
      24102 0003
 3123 24103 0064          64;7777                 /NO LIMIT ON DISK SEGMENTS
      24104 7777
 3124 24105 0067          67;70                   /SEGMENT LIST IS AT 70
      24106 0070
 3125 24107 0071          71;3                    /ACC. 3 UFD OWNS SEGMENT 3 ONLY, INITIALLY
      24110 0003
 3126 24111 0000          0                       /TABLE TERMINATOR

      /EDUSYSTEM 50 MONITOR FOR MELROSE HIGH SCHOOL #495AB               Page 76


 3127             
 3128 24112 6524  CRTABL, RTABLE-1                /MFD SEGMENT #S
 3129 24113 6265  CUTABL, UTABLE
 3130 24114 0531  SATCON, SATSIZ+1
 3131 24115 5777  CJOBTB, JTABLE-1                /START OF AREA TO CLEAR IN FIP
 3132             
 3133 24116 0000  PERSET, 0
 3134 24117 4202          JMS     FRD0            /MFD SEGMENT #S TO INBUF
 3135 24120 4235          JMS     FIPRD           /FIP TO FIELD 1
 3136 24121 1315          TAD     CJOBTB          /CLEAR FIP TABLES
 3137 24122 3010          DCA     AXS1
 3138 24123 6211          DATFLD
 3139 24124 3410          DCA I   AXS1
 3140 24125 1010          TAD     AXS1            /HAVE WE REACHED BOTTOM OF SAT?
 3141 24126 1314          TAD     SATCON
 3142 24127 7640          SZA CLA
 3143 24130 5324          JMP     .-4             /NO
 3144 24131 1312          TAD     CRTABL          /MOVE MFD SEGMENT #S TO RTABLE
 3145 24132 3010          DCA     AXS1
 3146 24133 1064          TAD     INBUF
 3147 24134 3011          DCA     AXS2
 3148 24135 1365          TAD     K7771
 3149 24136 3235          DCA     Z1
 3150 24137 4060  PERSE3, CHDF
 3151 24140 1411          TAD I   AXS2
 3152 24141 6211          DATFLD
 3153 24142 3410          DCA I   AXS1
 3154 24143 2235          ISZ     Z1
 3155 24144 5337          JMP     PERSE3
 3156 24145 7324          CLL CLA CML RAL
 3157 24146 3713          DCA I   CUTABL          /UTABLE=1
 3158 24147 7040          CMA
 3159 24150 2313          ISZ     CUTABL
 3160 24151 3713          DCA I   CUTABL          /UTABLE+1=-1
 3161 24152 2313          ISZ     CUTABL
 3162 24153 4060          CHDF
 3163 24154 1411          TAD I   AXS2
 3164 24155 6211          DATFLD
 3165 24156 7041          CIA
 3166 24157 3713          DCA I   CUTABL          /UTABLE+2=-"GRACE SPACE"
 3167 24160 4060          CHDF
 3168 24161 4500          DISC
 3169             IFZERO RKSYS <
 3170                     DMAW
 3171                     0011                    /WRITE FIP FROM FIELD 1, TO TRACK 1
 3172                     DISCHK                  /MAKE SURE THE DISK IS OK 
 3173                     >
 3174             IFNZRO RKSYS <
 3175 24162 4010          4010                    /WRITE, FIELD 1, DRIVE 0
 3176 24163 0001          0001                    /TRACK 1
 3177                     >
 3178 24164 5716          JMP I   PERSET
 3179             
 3180 24165 7771  K7771,  7771
 3181             
 3182             /THERE'S ALWAYS SOMEONE WHO WILL TRY TO LOAD INIT INTO THE SAME FIELD AS
 3183             /THE BINARY LOADER.  GIVE HIM/HER A MESSAGE IF HE DOES!!

      /EDUSYSTEM 50 MONITOR FOR MELROSE HIGH SCHOOL #495AB               Page 77


 3184             
 3185       4200  *4200
 3186 24200 7200          CLA
 3187 24201 6224          RIF
 3188 24202 1074          TAD     C6201
 3189 24203 3061          DCA     INIF
 3190 24204 4502          MESSAG
 3191 24205 4210          OOPS
 3192 24206 7402          HLT
 3193 24207 5203          JMP     .-4
 3194 24210 3720  OOPS,   TEXT "_PLEASE DON'T TRY TO LOAD INIT WITH THE BINARY LOADER "
      24211 1405
      24212 0123
      24213 0540
      24214 0417
      24215 1647
      24216 2440
      24217 2422
      24220 3140
      24221 2417
      24222 4014
      24223 1701
      24224 0440
      24225 1116
      24226 1124
      24227 4027
      24230 1124
      24231 1040
      24232 2410
      24233 0540
      24234 0211
      24235 1601
      24236 2231
      24237 4014
      24240 1701
      24241 0405
      24242 2240
      24243 0000
 3195       4243  *.-1
 3196 24243 1417          TEXT "LOCATED IN FIELD 2!"
      24244 0301
      24245 2405
      24246 0440
      24247 1116
      24250 4006
      24251 1105
      24252 1404
      24253 4062
      24254 4100
 3197       7632  *7632
 3198 27632 5401          JMP I   SUPERA          /THIS INSTRUCTION SHOULD INTERCEPT ANY BINARY
 3199                                             /LOADER IN PROGRESS IN THIS FIELD.

      /EDUSYSTEM 50 MONITOR FOR MELROSE HIGH SCHOOL #495AB               Page 78


 3200             
 3201             /INIT SUPERVISOR
 3202             /OVERLAYS XDDT PERMANENT SYMBOL TABLE
 3203             
 3204       4200          *4200
 3205 24200 7200  SUPER,  CLA                     /SET DATA FIELD
 3206 24201 6224          RIF
 3207 24202 1074          TAD     C6201
 3208 24203 3061          DCA     INIF
 3209 24204 4060          CHDF
 3210 24205 6761          DTRA
 3211 24206 0075          AND     C0200
 3212 24207 6764          DTXA                    /STOP ANY DECTAPE WHICH MAY BE MOVING AFTER AN ERROR
 3213 24210 1240          TAD     OUT1
 3214 24211 3105          DCA     OUTA            /RESTORE TTY OUTPUT
 3215 24212 6030  IFZERO CPU-2 <6030>             /DO HIM/HER A FAVOR IF IT'S AN 8/E
 3216             IFNZRO CPU-2 <6032>             /NOT QUITE AS HELPFUL, BUT NECESSARY
 3217             
 3218 24213 4502          MESSAG
 3219 24214 2365          LDXRS                   /LOAD, DUMP, START AND OTHER THINGS IN THE LIST OF COMMANDS??
 3220 24215 4504          GETIN                   /WAIT FOR REPLY
 3221 24216 1237          TAD     SUPTBA          /ADDRESS OF TABLE OF LETTERS
 3222 24217 3010          DCA     AXS1            /SAVE IT AUTO-INDEX
 3223 24220 1410  SUPER2, TAD I   AXS1            /GET A LETTER FROM TABLE
 3224 24221 7450          SNA                     /END OF TABLE?
 3225 24222 5233          JMP     SUPHUH          /YES - LET HIM/HER TRY AGAIN
 3226 24223 1464          TAD I   INBUF           /ADD ON FIRST CHARACTER TYPED
 3227 24224 7650          SNA CLA                 /THIS ONE?
 3228 24225 5230          JMP     SUPER3          /YES - DISPATCH
 3229 24226 2010          ISZ     AXS1            /NO - PASS UP DISPATCH ADDRESS
 3230 24227 5220          JMP     SUPER2          /NEXT
 3231             
 3232 24230 1410  SUPER3, TAD I   AXS1            /GET DISPATCH ADDRESS
 3233 24231 3060          DCA     CHDFA
 3234 24232 5460          JMP I   CHDFA           /AND DISPATCH
 3235             
 3236 24233 7200  SUPHUH, CLA
 3237 24234 4502          MESSAG
 3238 24235 3547          HUH
 3239 24236 5200          JMP     SUPER
 3240             
 3241 24237 4343  SUPTBA, SUPTBL-1
 3242 24240 0534  OUT1,   OUT

      /EDUSYSTEM 50 MONITOR FOR MELROSE HIGH SCHOOL #495AB               Page 79


 3243             
 3244 24241 0000  STFLD,  0
 3245 24242 4060          CHDF
 3246 24243 1657          TAD I   STFAD           /WHAT WAS THE SECOND CHARACTER TYPED?
 3247 24244 1260          TAD     STFM8
 3248 24245 7100          CLL
 3249 24246 1073          TAD     C0010
 3250 24247 7420          SNL
 3251 24250 5233          JMP     SUPHUH
 3252 24251 7106          CLL RTL
 3253 24252 7004          RAL
 3254 24253 1074          TAD     C6201
 3255 24254 3255          DCA     .+1
 3256 24255 0000          .-.
 3257 24256 5641          JMP I   STFLD
 3258 24257 2556  STFAD,  INBUFA+1
 3259 24260 7510  STFM8,  -"8
 3260             /REFRESHER CONTROL
 3261             
 3262 24261 0600  LOGSMA, LOGMES
 3263 24262 1403  REFFLD, CORFLD
 3264 24263 1402  REFDDT, XDDFLG
 3265 24264 2132  NOCSQ,  ISZ     CONDBA
 3266 24265 1405  REFCSQ, CORJMS
 3267             IFZERO DC08A <
 3268 24266 2402  REFREQ, FREQ
 3269 24267 1524  CYC50,  FRETEL
 3270             CYC60,
 3271             IFNZRO CPU-2 <-6>
 3272 24270 7764  IFZERO CPU-2 <-14>      >
 3273             
 3274 24271 4661  REFCO0, JMS I   LOGSMA          /CHECK FOR NEW SI LOGIN MESSAGE
 3275 24272 4500          DISC                    /READ INIT INTO FIELD 1
 3276             IFZERO RKSYS <
 3277                     DMAR
 3278                     21
 3279                     DISCHK                  /IS IT OK?
 3280                     >
 3281             IFNZRO RKSYS <
 3282 24273 0010          0010                    /READ, FIELD 1, DRIVE 0
 3283 24274 0002          0002                    /TRACK 2
 3284                     >
 3285 24275 4501          YESNO                   /LAOD XDDT?
 3286 24276 3103          DDTMES
 3287 24277 7240          STA
 3288 24300 6211          DATFLD
 3289 24301 3663          DCA I   REFDDT          /INITIALIZE XDDT LOAD FLAG
 3290 24302 4060  REFCO1, CHDF
 3291 24303 4502          MESSAG                  /# USER FIELDS -
 3292 24304 2544          CORMES
 3293 24305 4504          GETIN
 3294 24306 4503          OCTIN
 3295 24307 6211          DATFLD
 3296 24310 3662          DCA I   REFFLD          /INITIALIZE NUMBER OF USER FIELDS
 3297 24311 1662          TAD I   REFFLD
 3298 24312 7101          CLL IAC
 3299 24313 1042          TAD     C7770

      /EDUSYSTEM 50 MONITOR FOR MELROSE HIGH SCHOOL #495AB               Page 80


 3300 24314 7630          SZL CLA                 /IS HIS/HER ANSWER REASONABLE?
 3301 24315 5302          JMP     REFCO1          /NO
 3302 24316 4060          CHDF
 3303 24317 4501          YESNO
 3304 24320 3163          CSQ                     /DOES HE WANT ^S FEATURE?
 3305 24321 1264          TAD     NOCSQ           /NO
 3306 24322 6211          DATFLD
 3307 24323 3665          DCA I   REFCSQ
 3308             IFZERO DC08A < IFNZRO CPU-4 <
 3309 24324 4060          CHDF
 3310 24325 4501          YESNO
 3311 24326 1544          FREQUE                  /60 HERTZ?
 3312 24327 4667          JMS I   CYC50
 3313 24330 1270          TAD     CYC60
 3314 24331 6211          DATFLD
 3315 24332 3666          DCA I   REFREQ  > >
 3316 24333 4060          CHDF
 3317 24334 4500          DISC                    /WRITE OUT INIT
 3318             IFZERO RKSYS <
 3319                     DMAW
 3320                     21
 3321                     DISCHK                  /MAKE SURE IT'S OK
 3322                     >
 3323             IFNZRO RKSYS <
 3324 24335 4010          4010                    /WRITE, FIELD 1, DRIVE 0
 3325 24336 0002          0002                    /TRACK 2
 3326                     >
 3327 24337 4501          YESNO                   /DO YOU WANT TO REFRESH?
 3328 24340 3750          FIPREM
 3329 24341 5401          JMP I   SUPERA          /NO
 3330 24342 5743          JMP I   .+1
 3331 24343 3603          FIPREF                  /GO REFRESH
 3332             
 3333 24344 7464  SUPTBL, -"L
 3334 24345 3522          SUPLOD                  /LOAD
 3335 24346 7474          -"D
 3336 24347 3521          SUPDMP                  /DUMP
 3337 24350 7467          -"I
 3338 24351 2012          SUPREF                  /INITIALIZE
 3339 24352 7455          -"S
 3340 24353 2013          SUPST                   /START
 3341 24354 7450          -"X
 3342 24355 7000          7000                    /XDDT
 3343 24356 7476          -"B
 3344 24357 1000          SBUILD                  /BUILD
 3345 24360 7460          -"P
 3346 24361 0200          DISCLK                  /PATCH
 3347 24362 7454          -"T
 3348 24363 3400          DSKDMP                  /LOAD OR DUMP; YOU CHOOSE HOW MANY TRACKS
 3349 24364 7461          -"O
 3350 24365 1040          PATCH                   /LOAD AN OVERLAY TAPE
 3351 24366 7475          -"C
 3352 24367 3000          LOAD                    /READ OR WRITE 4K TO "C" OR
 3353 24370 7447          -"Y
 3354 24371 3221          Y                       /READ BINARY TAPE TO A SELECTED FIELD
 3355 24372 7446          -"Z
 3356 24373 4042          Z0                      /ZERO A SELECTED FIELD

      /EDUSYSTEM 50 MONITOR FOR MELROSE HIGH SCHOOL #495AB               Page 81


 3357 24374 7463          -"M
 3358 24375 2227          MF0                     /MATCH A SELECT FIELD WITH FIELD 1
 3359 24376 7451          -"W
 3360 24377 2200          CD0                     /DUMP A SELECTED FIELD
 3361 24400 7473          -"E
 3362 24401 1333          OSB                     /EXIT TO SOME OPERATING SYSTEM
 3363 24402 7456          -"R
 3364 24403 1321          RFBOOT                  /BOOT TO OPERATING SYSTEM ON RF08/DF32
 3365 24404 7465          -"K
 3366 24405 1317          KEBOOT                  /ROOT TO RK8E
 3367 24406 0000          0                       /TABLE TERMINATOR
 3368             
 3369             /FOLLOWING THIS COMMENT, YOU WILL FIND XDDT. ONLY IT MIGHT BE A
 3370             /LITTLE HARD TO SEE, SINCE IT'S XLISTED.
 3371             /XLIST
 3372       4434  *4434                           / VRS: Reconstructed from working binary.
 3373 24434 1117  1117                            / VRS: Need to disassemble this!
 3374 24435 2400  2400
 3375 24436 0000  0000
 3376 24437 6000  6000
 3377 24440 1720  1720
 3378 24441 2200  2200
 3379 24442 0000  0000
 3380 24443 7000  7000
 3381 24444 7000  7000
 3382 24445 6202  6202
 3383 24446 0000  0000
 3384 24447 7001  7001
 3385 24450 1350  1350
 3386 24451 7001  7001
 3387 24452 1351  1351
 3388 24453 3346  3346
 3389 24454 7630  7630
 3390 24455 5264  5264
 3391 24456 1746  1746
 3392 24457 3754  3754
 3393 24460 4755  4755
 3394 24461 1754  1754
 3395 24462 4756  4756
 3396 24463 5757  5757
 3397 24464 4760  4760
 3398 24465 1754  1754
 3399 24466 3746  3746
 3400 24467 5757  5757
 3401 24470 1347  1347
 3402 24471 4761  4761
 3403 24472 3762  3762
 3404 24473 5757  5757
 3405 24474 0000  0000
 3406 24475 7000  7000
 3407 24476 6041  6041
 3408 24477 5276  5276
 3409 24500 6046  6046
 3410 24501 7200  7200
 3411 24502 5674  5674
 3412 24503 1246  1246
 3413 24504 7640  7640

      /EDUSYSTEM 50 MONITOR FOR MELROSE HIGH SCHOOL #495AB               Page 82


 3414 24505 5313  5313
 3415 24506 7630  7630
 3416 24507 5321  5321
 3417 24510 4755  4755
 3418 24511 4763  4763
 3419 24512 5757  5757
 3420 24513 1764  1764
 3421 24514 7640  7640
 3422 24515 7001  7001
 3423 24516 3765  3765
 3424 24517 7420  7420
 3425 24520 5757  5757
 3426 24521 1352  1352
 3427 24522 5253  5253
 3428 24523 1244  1244
 3429 24524 3766  3766
 3430 24525 1767  1767
 3431 24526 0353  0353
 3432 24527 7640  7640
 3433 24530 5335  5335
 3434 24531 1770  1770
 3435 24532 3766  3766
 3436 24533 1244  1244
 3437 24534 3770  3770
 3438 24535 1771  1771
 3439 24536 3772  3772
 3440 24537 6224  6224
 3441 24540 1245  1245
 3442 24541 3773  3773
 3443 24542 1774  1774
 3444 24543 7510  7510
 3445 24544 5775  5775
 3446 24545 5776  5776
 3447 24546 0000  0000
 3448 24547 0070  0070
 3449 24550 0144  0144
 3450 24551 5554  5554
 3451 24552 5551  5551
 3452 24553 4400  4400
 3453 24554 7143  7143
 3454 24555 6360  6360
 3455 24556 7333  7333
 3456 24557 5222  5222
 3457 24560 4645  4645
 3458 24561 5116  5116
 3459 24562 5553  5553
 3460 24563 5711  5711
 3461 24564 6553  6553
 3462 24565 5552  5552
 3463 24566 5532  5532
 3464 24567 5350  5350
 3465 24570 5544  5544
 3466 24571 5227  5227
 3467 24572 5563  5563
 3468 24573 5407  5407
 3469 24574 5557  5557
 3470 24575 5503  5503

      /EDUSYSTEM 50 MONITOR FOR MELROSE HIGH SCHOOL #495AB               Page 83


 3471 24576 5464  5464
 3472             
 3473             PAGE
 3474 24600 0000  0000
 3475 24601 2342  2342
 3476 24602 1762  1762
 3477 24603 7650  7650
 3478 24604 5234  5234
 3479 24605 1347  1347
 3480 24606 3352  3352
 3481 24607 1357  1357
 3482 24610 4271  4271
 3483 24611 5216  5216
 3484 24612 1346  1346
 3485 24613 3343  3343
 3486 24614 2341  2341
 3487 24615 5600  5600
 3488 24616 1346  1346
 3489 24617 7640  7640
 3490 24620 5763  5763
 3491 24621 7040  7040
 3492 24622 1764  1764
 3493 24623 3352  3352
 3494 24624 1764  1764
 3495 24625 7041  7041
 3496 24626 1765  1765
 3497 24627 7112  7112
 3498 24630 7041  7041
 3499 24631 4271  4271
 3500 24632 5763  5763
 3501 24633 3345  3345
 3502 24634 1345  1345
 3503 24635 7000  7000
 3504 24636 1344  1344
 3505 24637 3344  3344
 3506 24640 5600  5600
 3507 24641 7040  7040
 3508 24642 0344  0344
 3509 24643 1345  1345
 3510 24644 5237  5237
 3511 24645 0000  0000
 3512 24646 4200  4200
 3513 24647 7300  7300
 3514 24650 3766  3766
 3515 24651 1341  1341
 3516 24652 7650  7650
 3517 24653 5266  5266
 3518 24654 2766  2766
 3519 24655 1344  1344
 3520 24656 1257  1257
 3521 24657 7600  7600
 3522 24660 1344  1344
 3523 24661 0360  0360
 3524 24662 1343  1343
 3525 24663 7430  7430
 3526 24664 1361  1361
 3527 24665 7410  7410

      /EDUSYSTEM 50 MONITOR FOR MELROSE HIGH SCHOOL #495AB               Page 84


 3528 24666 1344  1344
 3529 24667 3767  3767
 3530 24670 5645  5645
 3531 24671 0000  0000
 3532 24672 3351  3351
 3533 24673 2352  2352
 3534 24674 7146  7146
 3535 24675 3353  3353
 3536 24676 7146  7146
 3537 24677 3354  3354
 3538 24700 1350  1350
 3539 24701 3355  3355
 3540 24702 1752  1752
 3541 24703 2352  2352
 3542 24704 7041  7041
 3543 24705 1755  1755
 3544 24706 2355  2355
 3545 24707 7640  7640
 3546 24710 5316  5316
 3547 24711 2353  2353
 3548 24712 5316  5316
 3549 24713 1752  1752
 3550 24714 2271  2271
 3551 24715 5671  5671
 3552 24716 2354  2354
 3553 24717 5302  5302
 3554 24720 2351  2351
 3555 24721 5273  5273
 3556 24722 5671  5671
 3557 24723 2770  2770
 3558 24724 0000  0000
 3559 24725 5771  5771
 3560 24726 0000  0000
 3561 24727 7430  7430
 3562 24730 5773  5773
 3563 24731 1774  1774
 3564 24732 3764  3764
 3565 24733 5772  5772
 3566 24734 1356  1356
 3567 24735 1340  1340
 3568 24736 3775  3775
 3569 24737 5772  5772
 3570 24740 7640  7640
 3571 24741 0000  0000
 3572 24742 0000  0000
 3573 24743 0000  0000
 3574 24744 0000  0000
 3575 24745 0000  0000
 3576 24746 0000  0000
 3577 24747 5773  5773
 3578 24750 6561  6561
 3579 24751 0000  0000
 3580 24752 0000  0000
 3581 24753 0000  0000
 3582 24754 0000  0000
 3583 24755 0000  0000
 3584 24756 7750  7750

      /EDUSYSTEM 50 MONITOR FOR MELROSE HIGH SCHOOL #495AB               Page 85


 3585 24757 7772  7772
 3586 24760 0177  0177
 3587 24761 0200  0200
 3588 24762 6564  6564
 3589 24763 5635  5635
 3590 24764 6400  6400
 3591 24765 6552  6552
 3592 24766 7352  7352
 3593 24767 7143  7143
 3594 24770 7141  7141
 3595 24771 7343  7343
 3596 24772 5222  5222
 3597 24773 7465  7465
 3598 24774 6401  6401
 3599 24775 6665  6665
 3600             
 3601             PAGE
 3602 25000 7020  7020
 3603 25001 4743  4743
 3604 25002 7100  7100
 3605 25003 5744  5744
 3606 25004 0000  0000
 3607 25005 0000  0000
 3608 25006 0000  0000
 3609 25007 0000  0000
 3610 25010 0000  0000
 3611 25011 0000  0000
 3612 25012 5613  5613
 3613 25013 7777  7777
 3614 25014 7420  7420
 3615 25015 5747  5747
 3616 25016 4750  4750
 3617 25017 1751  1751
 3618 25020 3752  3752
 3619 25021 2753  2753
 3620 25022 5754  5754
 3621 25023 0000  0000
 3622 25024 3755  3755
 3623 25025 1756  1756
 3624 25026 3757  3757
 3625 25027 1756  1756
 3626 25030 7041  7041
 3627 25031 1760  1760
 3628 25032 7112  7112
 3629 25033 7041  7041
 3630 25034 3761  3761
 3631 25035 4762  4762
 3632 25036 5240  5240
 3633 25037 5623  5623
 3634 25040 1755  1755
 3635 25041 7006  7006
 3636 25042 7700  7700
 3637 25043 1335  1335
 3638 25044 1336  1336
 3639 25045 4763  4763
 3640 25046 1341  1341
 3641 25047 4764  4764

      /EDUSYSTEM 50 MONITOR FOR MELROSE HIGH SCHOOL #495AB               Page 86


 3642 25050 1755  1755
 3643 25051 0342  0342
 3644 25052 4765  4765
 3645 25053 5623  5623
 3646 25054 3755  3755
 3647 25055 1766  1766
 3648 25056 3757  3757
 3649 25057 1766  1766
 3650 25060 7041  7041
 3651 25061 1756  1756
 3652 25062 7112  7112
 3653 25063 7041  7041
 3654 25064 3761  3761
 3655 25065 4762  4762
 3656 25066 5270  5270
 3657 25067 5767  5767
 3658 25070 1755  1755
 3659 25071 4765  4765
 3660 25072 5767  5767
 3661 25073 1770  1770
 3662 25074 1340  1340
 3663 25075 7650  7650
 3664 25076 5771  5771
 3665 25077 1772  1772
 3666 25100 4316  4316
 3667 25101 3745  3745
 3668 25102 6224  6224
 3669 25103 7041  7041
 3670 25104 1745  1745
 3671 25105 7650  7650
 3672 25106 5311  5311
 3673 25107 1337  1337
 3674 25110 5313  5313
 3675 25111 7040  7040
 3676 25112 1773  1773
 3677 25113 3774  3774
 3678 25114 3775  3775
 3679 25115 5776  5776
 3680 25116 0000  0000
 3681 25117 3334  3334
 3682 25120 4750  4750
 3683 25121 1751  1751
 3684 25122 7104  7104
 3685 25123 7104  7104
 3686 25124 7104  7104
 3687 25125 7161  7161
 3688 25126 1334  1334
 3689 25127 7430  7430
 3690 25130 5747  5747
 3691 25131 7041  7041
 3692 25132 1334  1334
 3693 25133 5716  5716
 3694 25134 0000  0000
 3695 25135 7774  7774
 3696 25136 4440  4440
 3697 25137 7577  7577
 3698 25140 0007  0007

      /EDUSYSTEM 50 MONITOR FOR MELROSE HIGH SCHOOL #495AB               Page 87


 3699 25141 0240  0240
 3700 25142 0777  0777
 3701 25143 7105  7105
 3702 25144 7010  7010
 3703 25145 6367  6367
 3704 25146 6317  6317
 3705 25147 5635  5635
 3706 25150 4645  4645
 3707 25151 7143  7143
 3708 25152 6553  6553
 3709 25153 4446  4446
 3710 25154 5605  5605
 3711 25155 6773  6773
 3712 25156 6402  6402
 3713 25157 6775  6775
 3714 25160 6552  6552
 3715 25161 6776  6776
 3716 25162 6600  6600
 3717 25163 7220  7220
 3718 25164 4474  4474
 3719 25165 7333  7333
 3720 25166 6401  6401
 3721 25167 6736  6736
 3722 25170 7537  7537
 3723 25171 5723  5723
 3724 25172 5400  5400
 3725 25173 6400  6400
 3726 25174 5722  5722
 3727 25175 5721  5721
 3728 25176 5222  5222
 3729             
 3730             PAGE
 3731 25200 6002  6002
 3732 25201 7600  7600
 3733 25202 6046  6046
 3734 25203 4754  4754
 3735 25204 1755  1755
 3736 25205 7650  7650
 3737 25206 5220  5220
 3738 25207 3756  3756
 3739 25210 3757  3757
 3740 25211 3760  3760
 3741 25212 3755  3755
 3742 25213 4227  4227
 3743 25214 5217  5217
 3744 25215 1351  1351
 3745 25216 3750  3750
 3746 25217 4754  4754
 3747 25220 1337  1337
 3748 25221 3761  3761
 3749 25222 4754  4754
 3750 25223 5762  5762
 3751 25224 1226  1226
 3752 25225 5221  5221
 3753 25226 5301  5301
 3754 25227 0000  0000
 3755 25230 1763  1763

      /EDUSYSTEM 50 MONITOR FOR MELROSE HIGH SCHOOL #495AB               Page 88


 3756 25231 3350  3350
 3757 25232 1764  1764
 3758 25233 7500  7500
 3759 25234 4765  4765
 3760 25235 7700  7700
 3761 25236 2227  2227
 3762 25237 5627  5627
 3763 25240 4766  4766
 3764 25241 1767  1767
 3765 25242 4770  4770
 3766 25243 1771  1771
 3767 25244 3350  3350
 3768 25245 1772  1772
 3769 25246 7510  7510
 3770 25247 5773  5773
 3771 25250 4765  4765
 3772 25251 1750  1750
 3773 25252 5254  5254
 3774 25253 1351  1351
 3775 25254 4754  4754
 3776 25255 3350  3350
 3777 25256 1350  1350
 3778 25257 0353  0353
 3779 25260 3227  3227
 3780 25261 1350  1350
 3781 25262 7004  7004
 3782 25263 7430  7430
 3783 25264 7500  7500
 3784 25265 5270  5270
 3785 25266 7010  7010
 3786 25267 5774  5774
 3787 25270 7004  7004
 3788 25271 7006  7006
 3789 25272 7700  7700
 3790 25273 5300  5300
 3791 25274 1771  1771
 3792 25275 0201  0201
 3793 25276 1227  1227
 3794 25277 3227  3227
 3795 25300 7420  7420
 3796 25301 5315  5315
 3797 25302 1772  1772
 3798 25303 4765  4765
 3799 25304 1227  1227
 3800 25305 0311  0311
 3801 25306 1311  1311
 3802 25307 7650  7650
 3803 25310 2627  2627
 3804 25311 7770  7770
 3805 25312 1627  1627
 3806 25313 3227  3227
 3807 25314 4754  4754
 3808 25315 1350  1350
 3809 25316 0337  0337
 3810 25317 1352  1352
 3811 25320 3775  3775
 3812 25321 7130  7130

      /EDUSYSTEM 50 MONITOR FOR MELROSE HIGH SCHOOL #495AB               Page 89


 3813 25322 1350  1350
 3814 25323 0337  0337
 3815 25324 7640  7640
 3816 25325 5776  5776
 3817 25326 1771  1771
 3818 25327 3341  3341
 3819 25330 1772  1772
 3820 25331 4765  4765
 3821 25332 1341  1341
 3822 25333 7001  7001
 3823 25334 3627  3627
 3824 25335 4754  4754
 3825 25336 2227  2227
 3826 25337 7000  7000
 3827 25340 5777  5777
 3828 25341 0000  0000
 3829 25342 4227  4227
 3830 25343 5346  5346
 3831 25344 1750  1750
 3832 25345 3351  3351
 3833 25346 4754  4754
 3834 25347 5741  5741
 3835 25350 0000  0000
 3836 25351 0000  0000
 3837 25352 0763  0763
 3838 25353 0177  0177
 3839 25354 6324  6324
 3840 25355 5407  5407
 3841 25356 5551  5551
 3842 25357 5552  5552
 3843 25360 5554  5554
 3844 25361 4475  4475
 3845 25362 5600  5600
 3846 25363 5560  5560
 3847 25364 5557  5557
 3848 25365 6317  6317
 3849 25366 4645  4645
 3850 25367 7143  7143
 3851 25370 5672  5672
 3852 25371 5562  5562
 3853 25372 5561  5561
 3854 25373 5635  5635
 3855 25374 7324  7324
 3856 25375 5544  5544
 3857 25376 4523  4523
 3858 25377 7323  7323
 3859 25400 0000  0000
 3860 25401 2355  2355
 3861 25402 5250  5250
 3862 25403 5253  5253
 3863 25404 6324  6324
 3864 25405 5702  5702
 3865 25406 6317  6317
 3866 25407 0000  0000
 3867 25410 3351  3351
 3868 25411 7204  7204
 3869 25412 3352  3352

      /EDUSYSTEM 50 MONITOR FOR MELROSE HIGH SCHOOL #495AB               Page 90


 3870 25413 6214  6214
 3871 25414 3353  3353
 3872 25415 1360  1360
 3873 25416 3362  3362
 3874 25417 1357  1357
 3875 25420 3361  3361
 3876 25421 3355  3355
 3877 25422 7001  7001
 3878 25423 3354  3354
 3879 25424 2356  2356
 3880 25425 5603  5603
 3881 25426 6201  6201
 3882 25427 1773  1773
 3883 25430 3342  3342
 3884 25431 1774  1774
 3885 25432 3343  3343
 3886 25433 1372  1372
 3887 25434 3344  3344
 3888 25435 1364  1364
 3889 25436 3207  3207
 3890 25437 1365  1365
 3891 25440 3774  3774
 3892 25441 7201  7201
 3893 25442 2330  2330
 3894 25443 5250  5250
 3895 25444 2344  2344
 3896 25445 5250  5250
 3897 25446 7200  7200
 3898 25447 6046  6046
 3899 25450 6041  6041
 3900 25451 5242  5242
 3901 25452 3354  3354
 3902 25453 1342  1342
 3903 25454 3773  3773
 3904 25455 1343  1343
 3905 25456 3774  3774
 3906 25457 4604  4604
 3907 25460 1361  1361
 3908 25461 7112  7112
 3909 25462 7010  7010
 3910 25463 5605  5605
 3911 25464 4606  4606
 3912 25465 1365  1365
 3913 25466 3760  3760
 3914 25467 1200  1200
 3915 25470 3330  3330
 3916 25471 1330  1330
 3917 25472 4606  4606
 3918 25473 1207  1207
 3919 25474 3766  3766
 3920 25475 1367  1367
 3921 25476 3770  3770
 3922 25477 1330  1330
 3923 25500 1314  1314
 3924 25501 7500  7500
 3925 25502 5270  5270
 3926 25503 7201  7201

      /EDUSYSTEM 50 MONITOR FOR MELROSE HIGH SCHOOL #495AB               Page 91


 3927 25504 1226  1226
 3928 25505 1361  1361
 3929 25506 3342  3342
 3930 25507 1361  1361
 3931 25510 4606  4606
 3932 25511 7130  7130
 3933 25512 3361  3361
 3934 25513 2362  2362
 3935 25514 7770  7770
 3936 25515 1354  1354
 3937 25516 7650  7650
 3938 25517 1371  1371
 3939 25520 3330  3330
 3940 25521 1355  1355
 3941 25522 7640  7640
 3942 25523 0000  0000
 3943 25524 1347  1347
 3944 25525 3343  3343
 3945 25526 1352  1352
 3946 25527 7110  7110
 3947 25530 0000  0000
 3948 25531 1351  1351
 3949 25532 0000  0000
 3950 25533 5336  5336
 3951 25534 2362  2362
 3952 25535 7000  7000
 3953 25536 3351  3351
 3954 25537 1353  1353
 3955 25540 4606  4606
 3956 25541 1351  1351
 3957 25542 0000  0000
 3958 25543 0000  0000
 3959 25544 0000  0000
 3960 25545 5762  5762
 3961 25546 2362  2362
 3962 25547 0000  0000
 3963 25550 5762  5762
 3964 25551 0000  0000
 3965 25552 0000  0000
 3966 25553 0000  0000
 3967 25554 0000  0000
 3968 25555 0000  0000
 3969 25556 0000  0000
 3970 25557 4000  4000
 3971 25560 0000  0000
 3972 25561 4000  4000
 3973 25562 0000  0000
 3974 25563 0000  0000
 3975 25564 5201  5201
 3976 25565 5006  5006
 3977 25566 0006  0006
 3978 25567 5407  5407
 3979 25570 0007  0007
 3980 25571 6042  6042
 3981 25572 0000  0000
 3982 25573 0000  0000
 3983 25574 0001  0001

      /EDUSYSTEM 50 MONITOR FOR MELROSE HIGH SCHOOL #495AB               Page 92


 3984             
 3985             PAGE
 3986 25600 7240  7240
 3987 25601 3734  3734
 3988 25602 3735  3735
 3989 25603 4736  4736
 3990 25604 3737  3737
 3991 25605 1326  1326
 3992 25606 4224  4224
 3993 25607 1325  1325
 3994 25610 3740  3740
 3995 25611 7240  7240
 3996 25612 1327  1327
 3997 25613 3741  3741
 3998 25614 1327  1327
 3999 25615 4224  4224
 4000 25616 3742  3742
 4001 25617 1330  1330
 4002 25620 3743  3743
 4003 25621 3744  3744
 4004 25622 3745  3745
 4005 25623 5746  5746
 4006 25624 0000  0000
 4007 25625 3271  3271
 4008 25626 1331  1331
 4009 25627 3242  3242
 4010 25630 3671  3671
 4011 25631 2271  2271
 4012 25632 2242  2242
 4013 25633 5230  5230
 4014 25634 5624  5624
 4015 25635 7200  7200
 4016 25636 1332  1332
 4017 25637 4747  4747
 4018 25640 4750  4750
 4019 25641 5205  5205
 4020 25642 0000  0000
 4021 25643 1322  1322
 4022 25644 7160  7160
 4023 25645 1321  1321
 4024 25646 7420  7420
 4025 25647 5235  5235
 4026 25650 3270  3270
 4027 25651 1321  1321
 4028 25652 5642  5642
 4029 25653 4751  4751
 4030 25654 1752  1752
 4031 25655 3271  3271
 4032 25656 4242  4242
 4033 25657 3242  3242
 4034 25660 1753  1753
 4035 25661 4754  4754
 4036 25662 1271  1271
 4037 25663 3642  3642
 4038 25664 2242  2242
 4039 25665 2270  2270
 4040 25666 5262  5262

      /EDUSYSTEM 50 MONITOR FOR MELROSE HIGH SCHOOL #495AB               Page 93


 4041 25667 5755  5755
 4042 25670 0000  0000
 4043 25671 0000  0000
 4044 25672 0000  0000
 4045 25673 7450  7450
 4046 25674 7001  7001
 4047 25675 7041  7041
 4048 25676 3756  3756
 4049 25677 6041  6041
 4050 25700 5277  5277
 4051 25701 5672  5672
 4052 25702 4757  4757
 4053 25703 1760  1760
 4054 25704 4761  4761
 4055 25705 1333  1333
 4056 25706 4762  4762
 4057 25707 4311  4311
 4058 25710 5763  5763
 4059 25711 0000  0000
 4060 25712 1764  1764
 4061 25713 4757  4757
 4062 25714 1765  1765
 4063 25715 4766  4766
 4064 25716 1765  1765
 4065 25717 3752  3752
 4066 25720 5711  5711
 4067 25721 0000  0000
 4068 25722 4177  4177
 4069 25723 1752  1752
 4070 25724 5767  5767
 4071 25725 7000  7000
 4072 25726 4741  4741
 4073 25727 6561  6561
 4074 25730 7771  7771
 4075 25731 7774  7774
 4076 25732 0277  0277
 4077 25733 5140  5140
 4078 25734 6553  6553
 4079 25735 4446  4446
 4080 25736 6311  6311
 4081 25737 7144  7144
 4082 25740 4635  4635
 4083 25741 7540  7540
 4084 25742 4745  4745
 4085 25743 7537  7537
 4086 25744 7536  7536
 4087 25745 4746  4746
 4088 25746 6030  6030
 4089 25747 4474  4474
 4090 25750 6360  6360
 4091 25751 4645  4645
 4092 25752 7143  7143
 4093 25753 6367  6367
 4094 25754 6317  6317
 4095 25755 5222  5222
 4096 25756 5556  5556
 4097 25757 6135  6135

      /EDUSYSTEM 50 MONITOR FOR MELROSE HIGH SCHOOL #495AB               Page 94


 4098 25760 5562  5562
 4099 25761 6672  6672
 4100 25762 7235  7235
 4101 25763 5212  5212
 4102 25764 5552  5552
 4103 25765 5551  5551
 4104 25766 7333  7333
 4105 25767 7450  7450
 4106 25770 0000  0000
 4107 25771 0000  0000
 4108 25772 0000  0000
 4109 25773 0000  0000
 4110 25774 0116  0116
 4111 25775 0400  0400
 4112             
 4113             PAGE
 4114 26000 2401  2401
 4115 26001 0400  0400
 4116 26002 0000  0000
 4117 26003 1000  1000
 4118 26004 1123  1123
 4119 26005 3200  3200
 4120 26006 0000  0000
 4121 26007 2000  2000
 4122 26010 0403  0403
 4123 26011 0100  0100
 4124 26012 0000  0000
 4125 26013 3000  3000
 4126 26014 1215  1215
 4127 26015 2300  2300
 4128 26016 0000  0000
 4129 26017 4000  4000
 4130 26020 1215  1215
 4131 26021 2000  2000
 4132 26022 0000  0000
 4133 26023 5000  5000
 4134 26024 0000  0000
 4135 26025 7200  7200
 4136 26026 1360  1360
 4137 26027 4764  4764
 4138 26030 1765  1765
 4139 26031 4766  4766
 4140 26032 6031  6031
 4141 26033 5232  5232
 4142 26034 4767  4767
 4143 26035 4770  4770
 4144 26036 6036  6036
 4145 26037 7450  7450
 4146 26040 5230  5230
 4147 26041 0357  0357
 4148 26042 3224  3224
 4149 26043 1224  1224
 4150 26044 7450  7450
 4151 26045 0000  0000
 4152 26046 1354  1354
 4153 26047 7450  7450
 4154 26050 5304  5304

      /EDUSYSTEM 50 MONITOR FOR MELROSE HIGH SCHOOL #495AB               Page 95


 4155 26051 1356  1356
 4156 26052 7450  7450
 4157 26053 5306  5306
 4158 26054 1353  1353
 4159 26055 7450  7450
 4160 26056 5772  5772
 4161 26057 1350  1350
 4162 26060 7500  7500
 4163 26061 5310  5310
 4164 26062 7200  7200
 4165 26063 1224  1224
 4166 26064 1345  1345
 4167 26065 3343  3343
 4168 26066 1743  1743
 4169 26067 3344  3344
 4170 26070 1344  1344
 4171 26071 7650  7650
 4172 26072 5225  5225
 4173 26073 1343  1343
 4174 26074 1346  1346
 4175 26075 7500  7500
 4176 26076 5326  5326
 4177 26077 7200  7200
 4178 26100 1224  1224
 4179 26101 4764  4764
 4180 26102 4773  4773
 4181 26103 5744  5744
 4182 26104 4773  4773
 4183 26105 5774  5774
 4184 26106 4773  4773
 4185 26107 5775  5775
 4186 26110 1352  1352
 4187 26111 7500  7500
 4188 26112 5317  5317
 4189 26113 7200  7200
 4190 26114 1347  1347
 4191 26115 3344  3344
 4192 26116 5300  5300
 4193 26117 1355  1355
 4194 26120 7510  7510
 4195 26121 5262  5262
 4196 26122 1351  1351
 4197 26123 7450  7450
 4198 26124 5776  5776
 4199 26125 5225  5225
 4200 26126 1352  1352
 4201 26127 7700  7700
 4202 26130 5300  5300
 4203 26131 1224  1224
 4204 26132 1363  1363
 4205 26133 4777  4777
 4206 26134 5302  5302
 4207 26135 0000  0000
 4208 26136 1361  1361
 4209 26137 4764  4764
 4210 26140 1362  1362
 4211 26141 4764  4764

      /EDUSYSTEM 50 MONITOR FOR MELROSE HIGH SCHOOL #495AB               Page 96


 4212 26142 5735  5735
 4213 26143 0000  0000
 4214 26144 0000  0000
 4215 26145 6177  6177
 4216 26146 1600  1600
 4217 26147 7400  7400
 4218 26150 7735  7735
 4219 26151 7741  7741
 4220 26152 7746  7746
 4221 26153 7757  7757
 4222 26154 7766  7766
 4223 26155 7773  7773
 4224 26156 7775  7775
 4225 26157 0177  0177
 4226 26160 0207  0207
 4227 26161 0260  0260
 4228 26162 0273  0273
 4229 26163 3600  3600
 4230 26164 4474  4474
 4231 26165 6367  6367
 4232 26166 6317  6317
 4233 26167 6324  6324
 4234 26170 5341  5341
 4235 26171 5007  5007
 4236 26172 5224  5224
 4237 26173 6300  6300
 4238 26174 7065  7065
 4239 26175 7062  7062
 4240 26176 5635  5635
 4241 26177 7235  7235
 4242 26200 6453  6453
 4243 26201 0000  0000
 4244 26202 5004  5004
 4245 26203 7200  7200
 4246 26204 4734  4734
 4247 26205 0000  0000
 4248 26206 0000  0000
 4249 26207 6543  6543
 4250 26210 4451  4451
 4251 26211 7740  7740
 4252 26212 4727  4727
 4253 26213 4450  4450
 4254 26214 0077  0077
 4255 26215 6454  6454
 4256 26216 7346  7346
 4257 26217 6452  6452
 4258 26220 0000  0000
 4259 26221 4735  4735
 4260 26222 7347  7347
 4261 26223 4452  4452
 4262 26224 4447  4447
 4263 26225 0000  0000
 4264 26226 0000  0000
 4265 26227 0000  0000
 4266 26230 0000  0000
 4267 26231 5653  5653
 4268 26232 0000  0000

      /EDUSYSTEM 50 MONITOR FOR MELROSE HIGH SCHOOL #495AB               Page 97


 4269 26233 0000  0000
 4270 26234 0000  0000
 4271 26235 0000  0000
 4272 26236 6530  6530
 4273 26237 7457  7457
 4274 26240 5240  5240
 4275 26241 6337  6337
 4276 26242 5073  5073
 4277 26243 7006  7006
 4278 26244 7003  7003
 4279 26245 7005  7005
 4280 26246 7306  7306
 4281 26247 5000  5000
 4282 26250 7446  7446
 4283 26251 7433  7433
 4284 26252 7456  7456
 4285 26253 6445  6445
 4286 26254 7455  7455
 4287 26255 7400  7400
 4288 26256 7012  7012
 4289 26257 7401  7401
 4290 26260 7401  7401
 4291 26261 7401  7401
 4292 26262 7401  7401
 4293 26263 7401  7401
 4294 26264 7401  7401
 4295 26265 7401  7401
 4296 26266 7401  7401
 4297 26267 7400  7400
 4298 26270 7400  7400
 4299 26271 7014  7014
 4300 26272 5014  5014
 4301 26273 7120  7120
 4302 26274 7002  7002
 4303 26275 7121  7121
 4304 26276 5640  5640
 4305 26277 4503  4503
 4306 26300 0000  0000
 4307 26301 7340  7340
 4308 26302 1771  1771
 4309 26303 7200  7200
 4310 26304 5700  5700
 4311 26305 0212  0212
 4312 26306 0215  0215
 4313 26307 0240  0240
 4314 26310 0340  0340
 4315 26311 0000  0000
 4316 26312 1306  1306
 4317 26313 4772  4772
 4318 26314 1305  1305
 4319 26315 4772  4772
 4320 26316 5711  5711
 4321 26317 0000  0000
 4322 26320 1365  1365
 4323 26321 3322  3322
 4324 26322 6201  6201
 4325 26323 5717  5717

      /EDUSYSTEM 50 MONITOR FOR MELROSE HIGH SCHOOL #495AB               Page 98


 4326 26324 0000  0000
 4327 26325 3366  3366
 4328 26326 6224  6224
 4329 26327 4317  4317
 4330 26330 1366  1366
 4331 26331 5724  5724
 4332 26332 7010  7010
 4333 26333 7013  7013
 4334 26334 7011  7011
 4335 26335 6547  6547
 4336 26336 7004  7004
 4337 26337 7030  7030
 4338 26340 1367  1367
 4339 26341 3773  3773
 4340 26342 4774  4774
 4341 26343 1775  1775
 4342 26344 3776  3776
 4343 26345 5777  5777
 4344 26346 0000  0000
 4345 26347 0214  0214
 4346 26350 7450  7450
 4347 26351 5746  5746
 4348 26352 1211  1211
 4349 26353 7500  7500
 4350 26354 1370  1370
 4351 26355 1310  1310
 4352 26356 4772  4772
 4353 26357 5746  5746
 4354 26360 0000  0000
 4355 26361 7200  7200
 4356 26362 1307  1307
 4357 26363 4772  4772
 4358 26364 5760  5760
 4359 26365 6201  6201
 4360 26366 0000  0000
 4361 26367 0000  0000
 4362 26370 7700  7700
 4363 26371 4742  4742
 4364 26372 4474  4474
 4365 26373 5557  5557
 4366 26374 4645  4645
 4367 26375 7143  7143
 4368 26376 5560  5560
 4369 26377 5222  5222
 4370 26400 0000  0000
 4371 26401 0000  0000
 4372 26402 0000  0000
 4373 26403 0000  0000
 4374 26404 1360  1360
 4375 26405 7041  7041
 4376 26406 1200  1200
 4377 26407 7500  7500
 4378 26410 5603  5603
 4379 26411 3357  3357
 4380 26412 1200  1200
 4381 26413 3354  3354
 4382 26414 1354  1354

      /EDUSYSTEM 50 MONITOR FOR MELROSE HIGH SCHOOL #495AB               Page 99


 4383 26415 1366  1366
 4384 26416 3355  3355
 4385 26417 1754  1754
 4386 26420 3755  3755
 4387 26421 2354  2354
 4388 26422 2357  2357
 4389 26423 5214  5214
 4390 26424 5603  5603
 4391 26425 0000  0000
 4392 26426 1360  1360
 4393 26427 1366  1366
 4394 26430 3356  3356
 4395 26431 1361  1361
 4396 26432 3756  3756
 4397 26433 2356  2356
 4398 26434 1362  1362
 4399 26435 3756  3756
 4400 26436 2356  2356
 4401 26437 1363  1363
 4402 26440 3756  3756
 4403 26441 2356  2356
 4404 26442 1353  1353
 4405 26443 3756  3756
 4406 26444 5625  5625
 4407 26445 1767  1767
 4408 26446 3353  3353
 4409 26447 2770  2770
 4410 26450 4256  4256
 4411 26451 5771  5771
 4412 26452 7001  7001
 4413 26453 7001  7001
 4414 26454 4256  4256
 4415 26455 5772  5772
 4416 26456 0000  0000
 4417 26457 3365  3365
 4418 26460 1770  1770
 4419 26461 7640  7640
 4420 26462 1364  1364
 4421 26463 7650  7650
 4422 26464 5773  5773
 4423 26465 1365  1365
 4424 26466 1310  1310
 4425 26467 3270  3270
 4426 26470 0000  0000
 4427 26471 3360  3360
 4428 26472 4203  4203
 4429 26473 4225  4225
 4430 26474 7040  7040
 4431 26475 1365  1365
 4432 26476 7450  7450
 4433 26477 5305  5305
 4434 26500 7710  7710
 4435 26501 5310  5310
 4436 26502 1202  1202
 4437 26503 1366  1366
 4438 26504 3202  3202
 4439 26505 1201  1201

      /EDUSYSTEM 50 MONITOR FOR MELROSE HIGH SCHOOL #495AB              Page 100


 4440 26506 1366  1366
 4441 26507 3201  3201
 4442 26510 1200  1200
 4443 26511 1366  1366
 4444 26512 3200  3200
 4445 26513 6224  6224
 4446 26514 7041  7041
 4447 26515 1774  1774
 4448 26516 7640  7640
 4449 26517 5656  5656
 4450 26520 1775  1775
 4451 26521 7160  7160
 4452 26522 1200  1200
 4453 26523 7420  7420
 4454 26524 7200  7200
 4455 26525 1775  1775
 4456 26526 3775  3775
 4457 26527 5656  5656
 4458 26530 6031  6031
 4459 26531 5330  5330
 4460 26532 6034  6034
 4461 26533 7650  7650
 4462 26534 5332  5332
 4463 26535 6032  6032
 4464 26536 6031  6031
 4465 26537 5336  5336
 4466 26540 6032  6032
 4467 26541 1346  1346
 4468 26542 3776  3776
 4469 26543 7040  7040
 4470 26544 1200  1200
 4471 26545 5777  5777
 4472 26546 7000  7000
 4473 26547 7260  7260
 4474 26550 5751  5751
 4475 26551 7066  7066
 4476 26552 4444  4444
 4477 26553 0000  0000
 4478 26554 0000  0000
 4479 26555 0000  0000
 4480 26556 0000  0000
 4481 26557 0000  0000
 4482 26560 0000  0000
 4483 26561 0000  0000
 4484 26562 0000  0000
 4485 26563 0000  0000
 4486 26564 0000  0000
 4487 26565 0000  0000
 4488 26566 7774  7774
 4489 26567 7142  7142
 4490 26570 4446  4446
 4491 26571 5640  5640
 4492 26572 5222  5222
 4493 26573 5635  5635
 4494 26574 6367  6367
 4495 26575 5722  5722
 4496 26576 4475  4475

      /EDUSYSTEM 50 MONITOR FOR MELROSE HIGH SCHOOL #495AB              Page 101


 4497 26577 4457  4457
 4498 26600 0000  0000
 4499 26601 7240  7240
 4500 26602 1375  1375
 4501 26603 3375  3375
 4502 26604 3374  3374
 4503 26605 3670  3670
 4504 26606 1376  1376
 4505 26607 7700  7700
 4506 26610 5242  5242
 4507 26611 1375  1375
 4508 26612 1337  1337
 4509 26613 3375  3375
 4510 26614 1775  1775
 4511 26615 7141  7141
 4512 26616 1373  1373
 4513 26617 7620  7620
 4514 26620 5232  5232
 4515 26621 1374  1374
 4516 26622 7141  7141
 4517 26623 1775  1775
 4518 26624 7620  7620
 4519 26625 5232  5232
 4520 26626 1775  1775
 4521 26627 3374  3374
 4522 26630 1375  1375
 4523 26631 3377  3377
 4524 26632 2376  2376
 4525 26633 5211  5211
 4526 26634 1374  1374
 4527 26635 7450  7450
 4528 26636 5600  5600
 4529 26637 7041  7041
 4530 26640 1373  1373
 4531 26641 7640  7640
 4532 26642 5600  5600
 4533 26643 7146  7146
 4534 26644 1377  1377
 4535 26645 4671  4671
 4536 26646 2200  2200
 4537 26647 5600  5600
 4538 26650 3373  3373
 4539 26651 1745  1745
 4540 26652 3375  3375
 4541 26653 1745  1745
 4542 26654 7041  7041
 4543 26655 1746  1746
 4544 26656 7112  7112
 4545 26657 7041  7041
 4546 26660 3376  3376
 4547 26661 4200  4200
 4548 26662 5264  5264
 4549 26663 5672  5672
 4550 26664 1374  1374
 4551 26665 7640  7640
 4552 26666 5274  5274
 4553 26667 5303  5303

      /EDUSYSTEM 50 MONITOR FOR MELROSE HIGH SCHOOL #495AB              Page 102


 4554 26670 7352  7352
 4555 26671 7220  7220
 4556 26672 0000  0000
 4557 26673 5250  5250
 4558 26674 7346  7346
 4559 26675 1377  1377
 4560 26676 4671  4671
 4561 26677 1341  1341
 4562 26700 4747  4747
 4563 26701 1374  1374
 4564 26702 7041  7041
 4565 26703 1373  1373
 4566 26704 4750  4750
 4567 26705 5672  5672
 4568 26706 0343  0343
 4569 26707 7006  7006
 4570 26710 7006  7006
 4571 26711 7006  7006
 4572 26712 1344  1344
 4573 26713 4671  4671
 4574 26714 1751  1751
 4575 26715 7006  7006
 4576 26716 7006  7006
 4577 26717 7630  7630
 4578 26720 1340  1340
 4579 26721 4752  4752
 4580 26722 4753  4753
 4581 26723 4754  4754
 4582 26724 5331  5331
 4583 26725 3373  3373
 4584 26726 1342  1342
 4585 26727 4752  4752
 4586 26730 1373  1373
 4587 26731 4272  4272
 4588 26732 2670  2670
 4589 26733 5757  5757
 4590 26734 0000  0000
 4591 26735 5755  5755
 4592 26736 5734  5734
 4593 26737 0004  0004
 4594 26740 0052  0052
 4595 26741 0253  0253
 4596 26742 3240  3240
 4597 26743 7000  7000
 4598 26744 5774  5774
 4599 26745 6400  6400
 4600 26746 6401  6401
 4601 26747 4474  4474
 4602 26750 7333  7333
 4603 26751 7143  7143
 4604 26752 7235  7235
 4605 26753 6360  6360
 4606 26754 7243  7243
 4607 26755 5054  5054
 4608 26756 5023  5023
 4609 26757 0000  0000
 4610 26760 7200  7200

      /EDUSYSTEM 50 MONITOR FOR MELROSE HIGH SCHOOL #495AB              Page 103


 4611 26761 1751  1751
 4612 26762 3373  3373
 4613 26763 7132  7132
 4614 26764 1373  1373
 4615 26765 7200  7200
 4616 26766 1751  1751
 4617 26767 7420  7420
 4618 26770 5306  5306
 4619 26771 4756  4756
 4620 26772 5757  5757
 4621             
 4622             PAGE
 4623 27000 5601  5601
 4624 27001 5200  5200
 4625 27002 1345  1345
 4626 27003 1346  1346
 4627 27004 1347  1347
 4628 27005 1350  1350
 4629 27006 1352  1352
 4630 27007 5755  5755
 4631 27010 1345  1345
 4632 27011 1346  1346
 4633 27012 1347  1347
 4634 27013 1350  1350
 4635 27014 1352  1352
 4636 27015 3337  3337
 4637 27016 1254  1254
 4638 27017 3257  3257
 4639 27020 1756  1756
 4640 27021 7420  7420
 4641 27022 5226  5226
 4642 27023 7200  7200
 4643 27024 4757  4757
 4644 27025 1760  1760
 4645 27026 7100  7100
 4646 27027 7640  7640
 4647 27030 7120  7120
 4648 27031 1343  1343
 4649 27032 7430  7430
 4650 27033 4761  4761
 4651 27034 7000  7000
 4652 27035 3341  3341
 4653 27036 1344  1344
 4654 27037 7640  7640
 4655 27040 5247  5247
 4656 27041 1341  1341
 4657 27042 3342  3342
 4658 27043 1337  1337
 4659 27044 3340  3340
 4660 27045 1340  1340
 4661 27046 3337  3337
 4662 27047 1762  1762
 4663 27050 4763  4763
 4664 27051 1741  1741
 4665 27052 4764  4764
 4666 27053 3343  3343
 4667 27054 4765  4765

      /EDUSYSTEM 50 MONITOR FOR MELROSE HIGH SCHOOL #495AB              Page 104


 4668 27055 1343  1343
 4669 27056 4737  4737
 4670 27057 4765  4765
 4671 27060 2344  2344
 4672 27061 5766  5766
 4673 27062 7020  7020
 4674 27063 4305  4305
 4675 27064 5767  5767
 4676 27065 7221  7221
 4677 27066 3765  3765
 4678 27067 1254  1254
 4679 27070 3257  3257
 4680 27071 4305  4305
 4681 27072 1765  1765
 4682 27073 1342  1342
 4683 27074 3342  3342
 4684 27075 4770  4770
 4685 27076 1342  1342
 4686 27077 4752  4752
 4687 27100 1340  1340
 4688 27101 4771  4771
 4689 27102 1342  1342
 4690 27103 3341  3341
 4691 27104 5245  5245
 4692 27105 0000  0000
 4693 27106 1344  1344
 4694 27107 7670  7670
 4695 27110 5705  5705
 4696 27111 4757  4757
 4697 27112 1762  1762
 4698 27113 4763  4763
 4699 27114 1343  1343
 4700 27115 3741  3741
 4701 27116 4764  4764
 4702 27117 5705  5705
 4703 27120 1354  1354
 4704 27121 1227  1227
 4705 27122 3772  3772
 4706 27123 7420  7420
 4707 27124 5773  5773
 4708 27125 4757  4757
 4709 27126 1343  1343
 4710 27127 0774  0774
 4711 27130 7041  7041
 4712 27131 3344  3344
 4713 27132 1351  1351
 4714 27133 3257  3257
 4715 27134 4775  4775
 4716 27135 3341  3341
 4717 27136 5776  5776
 4718 27137 0000  0000
 4719 27140 6757  6757
 4720 27141 0000  0000
 4721 27142 0000  0000
 4722 27143 0000  0000
 4723 27144 0000  0000
 4724 27145 0076  0076

      /EDUSYSTEM 50 MONITOR FOR MELROSE HIGH SCHOOL #495AB              Page 105


 4725 27146 0256  0256
 4726 27147 0023  0023
 4727 27150 0042  0042
 4728 27151 5777  5777
 4729 27152 6672  6672
 4730 27153 7333  7333
 4731 27154 0010  0010
 4732 27155 7507  7507
 4733 27156 7352  7352
 4734 27157 4645  4645
 4735 27160 4741  4741
 4736 27161 7243  7243
 4737 27162 6367  6367
 4738 27163 6317  6317
 4739 27164 6324  6324
 4740 27165 6360  6360
 4741 27166 5605  5605
 4742 27167 5222  5222
 4743 27170 6311  6311
 4744 27171 6346  6346
 4745 27172 7526  7526
 4746 27173 5635  5635
 4747 27174 6553  6553
 4748 27175 5642  5642
 4749 27176 7516  7516
 4750 27177 4723  4723
 4751 27200 7630  7630
 4752 27201 5631  5631
 4753 27202 1632  1632
 4754 27203 7012  7012
 4755 27204 7010  7010
 4756 27205 5633  5633
 4757 27206 0000  0000
 4758 27207 3353  3353
 4759 27210 1753  1753
 4760 27211 7012  7012
 4761 27212 7012  7012
 4762 27213 7012  7012
 4763 27214 4634  4634
 4764 27215 1753  1753
 4765 27216 4634  4634
 4766 27217 5606  5606
 4767 27220 0000  0000
 4768 27221 4206  4206
 4769 27222 2353  2353
 4770 27223 1353  1353
 4771 27224 4206  4206
 4772 27225 2353  2353
 4773 27226 1353  1353
 4774 27227 4206  4206
 4775 27230 5620  5620
 4776 27231 4470  4470
 4777 27232 5553  5553
 4778 27233 4457  4457
 4779 27234 6346  6346
 4780 27235 0000  0000
 4781 27236 3220  3220

      /EDUSYSTEM 50 MONITOR FOR MELROSE HIGH SCHOOL #495AB              Page 106


 4782 27237 3352  3352
 4783 27240 1354  1354
 4784 27241 4206  4206
 4785 27242 5635  5635
 4786 27243 0000  0000
 4787 27244 7301  7301
 4788 27245 1361  1361
 4789 27246 0726  0726
 4790 27247 7440  7440
 4791 27250 7320  7320
 4792 27251 1726  1726
 4793 27252 0361  0361
 4794 27253 7430  7430
 4795 27254 5257  5257
 4796 27255 2243  2243
 4797 27256 5643  5643
 4798 27257 3353  3353
 4799 27260 1727  1727
 4800 27261 0363  0363
 4801 27262 1353  1353
 4802 27263 5643  5643
 4803 27264 0000  0000
 4804 27265 1353  1353
 4805 27266 7006  7006
 4806 27267 7004  7004
 4807 27270 3353  3353
 4808 27271 1353  1353
 4809 27272 0360  0360
 4810 27273 2206  2206
 4811 27274 7440  7440
 4812 27275 5277  5277
 4813 27276 5664  5664
 4814 27277 1362  1362
 4815 27300 4730  4730
 4816 27301 1206  1206
 4817 27302 7650  7650
 4818 27303 5733  5733
 4819 27304 4264  4264
 4820 27305 5277  5277
 4821 27306 7420  7420
 4822 27307 5731  5731
 4823 27310 4732  4732
 4824 27311 1726  1726
 4825 27312 3764  3764
 4826 27313 1765  1765
 4827 27314 3766  3766
 4828 27315 1765  1765
 4829 27316 3632  3632
 4830 27317 3767  3767
 4831 27320 7130  7130
 4832 27321 3770  3770
 4833 27322 4771  4771
 4834 27323 1356  1356
 4835 27324 3772  3772
 4836 27325 5773  5773
 4837 27326 7143  7143
 4838 27327 7141  7141

      /EDUSYSTEM 50 MONITOR FOR MELROSE HIGH SCHOOL #495AB              Page 107


 4839 27330 4474  4474
 4840 27331 5635  5635
 4841 27332 4645  4645
 4842 27333 0000  0000
 4843 27334 7104  7104
 4844 27335 3353  3353
 4845 27336 3352  3352
 4846 27337 1357  1357
 4847 27340 3206  3206
 4848 27341 4264  4264
 4849 27342 5341  5341
 4850 27343 2774  2774
 4851 27344 5775  5775
 4852 27345 5776  5776
 4853 27346 7001  7001
 4854 27347 1355  1355
 4855 27350 3777  3777
 4856 27351 5776  5776
 4857 27352 0000  0000
 4858 27353 0000  0000
 4859 27354 7220  7220
 4860 27355 4752  4752
 4861 27356 5763  5763
 4862 27357 7774  7774
 4863 27360 0007  0007
 4864 27361 0177  0177
 4865 27362 0260  0260
 4866 27363 7600  7600
 4867 27364 5227  5227
 4868 27365 6367  6367
 4869 27366 5561  5561
 4870 27367 5555  5555
 4871 27370 5350  5350
 4872 27371 5672  5672
 4873 27372 5544  5544
 4874 27373 4523  4523
 4875 27374 5670  5670
 4876 27375 7516  7516
 4877 27376 5222  5222
 4878 27377 7077  7077
 4879 27400 2745  2745
 4880 27401 2337  2337
 4881 27402 5204  5204
 4882 27403 5746  5746
 4883 27404 7130  7130
 4884 27405 1336  1336
 4885 27406 3336  3336
 4886 27407 1747  1747
 4887 27410 0343  0343
 4888 27411 7430  7430
 4889 27412 5217  5217
 4890 27413 7106  7106
 4891 27414 7006  7006
 4892 27415 7006  7006
 4893 27416 2340  2340
 4894 27417 1740  1740
 4895 27420 3740  3740

      /EDUSYSTEM 50 MONITOR FOR MELROSE HIGH SCHOOL #495AB              Page 108


 4896 27421 1747  1747
 4897 27422 0342  0342
 4898 27423 3335  3335
 4899 27424 1750  1750
 4900 27425 7104  7104
 4901 27426 7104  7104
 4902 27427 7104  7104
 4903 27430 1335  1335
 4904 27431 3750  3750
 4905 27432 5253  5253
 4906 27433 1337  1337
 4907 27434 1342  1342
 4908 27435 7640  7640
 4909 27436 5241  5241
 4910 27437 1751  1751
 4911 27440 5250  5250
 4912 27441 1344  1344
 4913 27442 3752  3752
 4914 27443 2745  2745
 4915 27444 4753  4753
 4916 27445 5251  5251
 4917 27446 3745  3745
 4918 27447 1754  1754
 4919 27450 3750  3750
 4920 27451 7040  7040
 4921 27452 3337  3337
 4922 27453 2755  2755
 4923 27454 5756  5756
 4924 27455 1332  1332
 4925 27456 1333  1333
 4926 27457 1334  1334
 4927 27460 3337  3337
 4928 27461 7430  7430
 4929 27462 4753  4753
 4930 27463 1337  1337
 4931 27464 5757  5757
 4932 27465 4753  4753
 4933 27466 1760  1760
 4934 27467 7161  7161
 4935 27470 1761  1761
 4936 27471 7200  7200
 4937 27472 1745  1745
 4938 27473 7670  7670
 4939 27474 5746  5746
 4940 27475 1760  1760
 4941 27476 1341  1341
 4942 27477 3340  3340
 4943 27500 1341  1341
 4944 27501 3762  3762
 4945 27502 2340  2340
 4946 27503 3740  3740
 4947 27504 2762  2762
 4948 27505 5302  5302
 4949 27506 5763  5763
 4950 27507 3340  3340
 4951 27510 7430  7430
 4952 27511 4764  4764

      /EDUSYSTEM 50 MONITOR FOR MELROSE HIGH SCHOOL #495AB              Page 109


 4953 27512 4762  4762
 4954 27513 1765  1765
 4955 27514 4740  4740
 4956 27515 5766  5766
 4957 27516 1767  1767
 4958 27517 3335  3335
 4959 27520 1770  1770
 4960 27521 4771  4771
 4961 27522 1735  1735
 4962 27523 4772  4772
 4963 27524 0773  0773
 4964 27525 1774  1774
 4965 27526 7402  7402
 4966 27527 5775  5775
 4967 27530 1767  1767
 4968 27531 5776  5776
 4969 27532 0041  0041
 4970 27533 1537  1537
 4971 27534 5241  5241
 4972 27535 0000  0000
 4973 27536 0000  0000
 4974 27537 0000  0000
 4975 27540 0000  0000
 4976 27541 7774  7774
 4977 27542 0007  0007
 4978 27543 0077  0077
 4979 27544 0400  0400
 4980 27545 6564  6564
 4981 27546 5635  5635
 4982 27547 6024  6024
 4983 27550 4745  4745
 4984 27551 7142  7142
 4985 27552 4746  4746
 4986 27553 4600  4600
 4987 27554 6561  6561
 4988 27555 4742  4742
 4989 27556 6030  6030
 4990 27557 5610  5610
 4991 27560 4752  4752
 4992 27561 6401  6401
 4993 27562 6360  6360
 4994 27563 5222  5222
 4995 27564 4645  4645
 4996 27565 7143  7143
 4997 27566 5640  5640
 4998 27567 7141  7141
 4999 27570 6367  6367
 5000 27571 6317  6317
 5001 27572 6324  6324
 5002 27573 6553  6553
 5003 27574 7144  7144
 5004 27575 4723  4723
 5005 27576 7074  7074
 5006             /XLIST
 5007                                             / VRS: End of XDDT reconstruction
 5008             

      /EDUSYSTEM 50 MONITOR FOR MELROSE HIGH SCHOOL #495AB              Page 110


 5009             
 5010       5400          *5400
 5011 25400 0070          70                      /PATCH FIELD SELECT FOR XDDT
 5012             
 5013       6400          *6400
 5014 26400 4434          4434
 5015 26401 4434          4434
 5016 26402 4434          4434
 5017             
 5018       4724  *4724
 5019 24724 6031          6031                    /PATCH TO FIX XDDT BUGS ON 8E
 5020       4726  *4726
 5021 24726 5376          5376
 5022       4776  *4776
 5023 24776 6032          6032
 5024 24777 5772          5772
 5025       5004  *5004                           /^C CODE
 5026 25004 6041          TSF
 5027 25005 5204          JMP     .-1             /WAIT FOR FLAG FROM ^C
 5028 25006 7410  XOP,    SKP                     /NOP IF XDDT IS EXEC DDT
 5029 25007 6203          CIF CDF 0
 5030 25010 5611          JMP I   .+1
 5031 25011 4200          4200
 5032       5523  *5523
 5033 25523 1222          1222
 5034       5547  *5547
 5035 25547 7000          7000
 5036       5572  *5572
 5037 25572 7760          7760                    /GIVE THE TTY FLAG MORE TIME
 5038       6045  *6045
 5039 26045 5225          5225                    /DON'T GO TO BINARY LOADER

      /EDUSYSTEM 50 MONITOR FOR MELROSE HIGH SCHOOL #495AB              Page 111


 5040             
 5041             /BINARY LOADER SUBROUTINE
 5042             /CALLING SEQUENCE: CDF TO FIELD TO LOAD TAPE INTO
 5043             /       JMS     BINTAP
 5044             /       JMP     ?       /RETURN WITH FIELD SETTING IN AC6-8
 5045             /                       /JMP BINT3 WHEN DESIRED ACTION HAS BEEN TAKEN
 5046             /       ?               /RETURN WITH CHECKSUM IN THE AC
 5047             
 5048       7600  *7600
 5049             
 5050 27600 0000  BINTAP, 0
 5051 27601 6032          KCC                     /BRING UP FLAG ON LS READER, AC=0
 5052 27602 6014          RFC                     /BRING UP FLAG ON HS READER
 5053 27603 1243          TAD     M200
 5054 27604 3304          DCA     TEMP            /INITIALIZE DELAY TIME
 5055             BLORI,
 5056 27605 6031  BINF,   KSF                     /LS READER FLAG YET?
 5057 27606 5211          JMP     .+3             /NO
 5058 27607 1205          TAD     BLORI           /YES ---
 5059 27610 5214          JMP     .+4
 5060 27611 6011          RSF                     /HS READER FLAG YET?
 5061 27612 5274          JMP     BINIL           /NO
 5062 27613 1367          TAD     BHIRI           /YES
 5063 27614 3336          DCA     BINRD+1         /SAVE HI/LO SWITCH
 5064 27615 4306          JMS     BFR             /READ TAPE-LEADER?
 5065 27616 5220          JMP     .+2             /YES - GO FIND END OF LEADER
 5066 27617 5215          JMP     .-2             /NO - FIND LEADER BEFORE ANYTHING
 5067 27620 4306          JMS     BFR             /READ TAPE - LEADER?
 5068 27621 5220          JMP     .-1             /YES - KEEP LOOKING
 5069 27622 3371          DCA     ORIGIN          /INITIALIZE ORIGIN FOR SAVE TAPES
 5070 27623 3370  GO,     DCA     BINCHK          /CLEAR OUT OR UPDATE CHECKSUM
 5071 27624 1372  BINT2,  TAD     FRAME           /WHAT WAS IT?
 5072 27625 1373          TAD     C7500
 5073 27626 7500          SMA
 5074 27627 5263          JMP     BINFLD          /MUST HAVE BEEN A FIELD SETTING
 5075 27630 1374          TAD     MASK            /NOW GET THE FRAME BACK
 5076 27631 3354          DCA     WORD1
 5077 27632 4335          JMS     BINRD           /GET NEXT FRAME
 5078 27633 3355          DCA     WORD2
 5079 27634 4306          JMS     BFR             /NOW LOOK AHEAD FOR LEADER/TRAILER
 5080 27635 5250          JMP     BINC            /TRAILER! GO DO CHECKSUM
 5081 27636 4265          JMS     ASSEMB          /ASSEMBLE WORD
 5082 27637 7430          SZL                     /ORIGIN?
 5083 27640 5356          JMP     BINORG          /ORIGIN
 5084 27641 3771          DCA I   ORIGIN          /STORE AWAY DATA
 5085 27642 2371          ISZ     ORIGIN          /PREPARE FOR NEXT
 5086 27643 7600  M200,   CLA 400
 5087 27644 1354  BINT4,  TAD     WORD1           /NOW UPDATE THE CHECKSUM
 5088 27645 1355          TAD     WORD2
 5089 27646 1370          TAD     BINCHK          /ADD IN OLD CHECKSUM
 5090 27647 5223          JMP     GO              /AND GO SAVE IT AND CONTINUE
 5091             
 5092 27650 4265  BINC,   JMS     ASSEMB          /ASSEMBLE THE CHECKSUM
 5093 27651 7041          CIA
 5094 27652 1370          TAD     BINCHK          /COMPUTE FINAL CHECKSUM
 5095 27653 2200  BINC2,  ISZ     BINTAP          /SKIP ON RETURN
 5096 27654 7450          SNA                     /CHECKSUM OK?

      /EDUSYSTEM 50 MONITOR FOR MELROSE HIGH SCHOOL #495AB              Page 112


 5097 27655 5600          JMP I   BINTAP          /YES
 5098 27656 3370          DCA     BINCHK          /SAVE IT
 5099 27657 4502          MESSAG                  /TELL HIM/HER ABOUT BAD CHECKSUM
 5100 27660 3536          TAPERR
 5101 27661 1370          TAD     BINCHK          /GET CHECKSUM
 5102 27662 5600          JMP I   BINTAP          /AND RETURN; CHECKSUM IN AC
 5103             
 5104 27663 0375  BINFLD, AND     K0070           /GET FIELD BITS
 5105 27664 5600          JMP I   BINTAP          /AND GO PROCESS THEM
 5106             
 5107             SWITCH,
 5108 27665 0000  ASSEMB, 0
 5109 27666 1354          TAD     WORD1
 5110 27667 7106          CLL RTL
 5111 27670 7006          RTL
 5112 27671 7006          RTL
 5113 27672 1355          TAD     WORD2
 5114 27673 5665          JMP I   ASSEMB
 5115 27674 4360  BINIL,  JMS     DELAY
 5116 27675 5205          JMP     BINF
 5117             
 5118             /HERE IS THE REAL BINARY LOADER!
 5119             
 5120 27676 4200          JMS     BINTAP          /GO AND BINARY LOAD
 5121 27677 5302          JMP     .+3             /FOUND A FIELD SETTING
 5122 27700 7402  M376,   HLT                     /FINISHED - CHECKSUM IN AC
 5123 27701 5276  BEGIN,  JMP     .-3             /CONTINUE - HE WANTS ANOTHER TAPE READ
 5124 27702 1376          TAD     K6201           /MAKE A CDF
 5125 27703 3304          DCA     .+1             /SAVE IT
 5126 27704 0000  TEMP,   .-.
 5127 27705 5332          JMP     BINT3           /AND CONTINUE
 5128             
 5129             /MORE BINARY LOAD JUNK
 5130             
 5131             /BFR - READ TAPE, IGNORING FRAMES BRACKETED BY RUBOUTS
 5132             /SKIP ON RETURN IF LEADER NOT FOUND
 5133             
 5134 27706 0000  BFR,    0
 5135 27707 3265          DCA     SWITCH          /SET THE SWITCH (OR RESET IT)
 5136 27710 1243          TAD     M200
 5137 27711 3304          DCA     TEMP
 5138 27712 4335          JMS     BINRD           /GET A CHARACTER
 5139 27713 1300          TAD     M376            /TEST FOR 377; RUBOUT
 5140 27714 7750          SPA SNA CLA
 5141 27715 5321          JMP     .+4             /NOT RUBOUT
 5142 27716 2265          ISZ     SWITCH          /YES; COMPLEMENT SWITCH
 5143 27717 7040          CMA
 5144 27720 5307          JMP     BFR+1
 5145 27721 1265          TAD     SWITCH
 5146 27722 7640          SZA CLA                 /IS THE SWITCH SET?
 5147 27723 5310          JMP     BFR+2           /YES; IGNORE THE DATA
 5148 27724 1372          TAD     FRAME           /WHAT WAS THE CHARACTER AGAIN?
 5149 27725 0374          AND     MASK
 5150 27726 1243          TAD     M200
 5151 27727 7640          SZA CLA                 /WAS IT LEADER?
 5152 27730 2306          ISZ     BFR             /NO, SKIP ON RETURN
 5153 27731 5706          JMP I   BFR             /AND RETURN

      /EDUSYSTEM 50 MONITOR FOR MELROSE HIGH SCHOOL #495AB              Page 113


 5154             
 5155 27732 4306  BINT3,  JMS     BFR             /GET NEXT FRAME
 5156 27733 5250          JMP     BINC            /HUH? LEADER/TRAILER FOLLOWING FIELD SETTING OR ORIGIN!!
 5157 27734 5224          JMP     BINT2           /AND PROCESS IT
 5158             
 5159 27735 0000  BINRD,  0
 5160 27736 7402          HLT                     /KSF OR ELSE JMP HIR
 5161 27737 5352          JMP     BINDL
 5162 27740 6036          KRB
 5163 27741 3372          DCA     FRAME
 5164 27742 1372          TAD     FRAME
 5165 27743 5735          JMP I   BINRD
 5166 27744 6011  BHIR,   RSF
 5167 27745 5352          JMP     BINDL
 5168 27746 6016          RRB RFC
 5169 27747 5341          JMP     .-6
 5170             
 5171       7750  *7750                           /WC & CA; INIT WILL READ INTO FIELD 0 OK
 5172 27750 7751          .+1;.
      27751 7751
 5173 27752 4360  BINDL,  JMS     DELAY
 5174 27753 5336          JMP     BINRD+1
 5175             
 5176 27754 0000  WORD1,  .-.                     /DECTAPE WC & CA
 5177 27755 0000  WORD2,  .-.
 5178             
 5179             /MORE BINARY LOAD JUNK
 5180             
 5181 27756 3371  BINORG, DCA     ORIGIN          /SAVE ORIGIN
 5182 27757 5244          JMP     BINT4
 5183             
 5184 27760 0000  DELAY,  0
 5185 27761 2372          ISZ     FRAME
 5186 27762 5760          JMP I   DELAY
 5187 27763 2304          ISZ     TEMP
 5188 27764 5760          JMP I   DELAY
 5189 27765 7240          STA                     /TIME OUT - GIVE HIM/HER ERROR MESSAGE
 5190 27766 5253          JMP     BINC2
 5191             
 5192 27767 5344  BHIRI,  JMP     BHIR
 5193 27770 0000  BINCHK, 0                       /CHECKSUM ACCUMULATION
 5194 27771 0000  ORIGIN, 0                       /CURRNET ADDRESS
 5195 27772 0000  FRAME,  0
 5196 27773 7500  C7500,  7500
 5197 27774 0300  MASK,   0300
 5198 27775 0070  K0070,  0070
 5199 27776 6201  K6201,  6201
 5200             
 5201       7777  *7777
 5202 27777 5301          JMP     BEGIN           /BINARY LOADER?!!

      No detected errors
